1900 A9 E1    LDA #&E1
1902 A2 00    LDX #&00      ; Ignore function keys
1904 20 F4 FF JSR &FFF4
1907 4C 00 3E JMP &3E00
190A 21       EQUB 33
190B E7       EQUB 231
190C 20       EQUB 32
190D 90       EQUB 144
190E 3C       EQUB 60
190F 3E       EQUB 62
1910 26       EQUB 38
1911 37       EQUB 55
1912 30       EQUB 48
1913 30       EQUB 48
1914 30       EQUB 48
1915 20       EQUB 32
1916 8C       EQUB 140
1917 20       EQUB 32
1918 D0       EQUB 208
1919 3D       EQUB 61
191A 26       EQUB 38
191B 37       EQUB 55
191C 30       EQUB 48
191D 30       EQUB 48
191E 30       EQUB 48
191F 3A       EQUB 58
1920 D7       EQUB 215
1921 22       EQUB 34
1922 52       EQUB 82
1923 45       EQUB 69
1924 4C       EQUB 76
1925 4F       EQUB 79
1926 43       EQUB 67
1927 22       EQUB 34
1928 0D       EQUB 13
1929 00       EQUB 00
192A 1E       EQUB 30
192B 16       EQUB 22
192C F1       EQUB 241
192D 20       EQUB 32
192E 22       EQUB 34
192F 52       EQUB 82
1930 45       EQUB 69
1931 4C       EQUB 76
1932 4F       EQUB 79
1933 43       EQUB 67
1934 41       EQUB 65
1935 54       EQUB 84
1936 45       EQUB 69
1937 20       EQUB 32
1938 42       EQUB 66
1939 45       EQUB 69
193A 47       EQUB 71
193B 49       EQUB 73
193C 4E       EQUB 78
193D 22       EQUB 34
193E 0D       EQUB 13
193F 00       EQUB 00
1940 28       EQUB 40
1941 05       EQUB 05
1942 20       EQUB 32
1943 0D       EQUB 13
1944 00       EQUB 00
1945 32       EQUB 50
1946 0E       EQUB 14
1947 F4       EQUB 244
1948 20       EQUB 32
1949 44       EQUB 68
194A 2E       EQUB 46
194B 4C       EQUB 76
194C 4F       EQUB 79
194D 43       EQUB 67
194E 41       EQUB 65
194F 54       EQUB 84
1950 45       EQUB 69
1951 0D       EQUB 13
1952 00       EQUB 00
1953 3C       EQUB 60
1954 12       EQUB 18
1955 2A       EQUB 42
1956 45       EQUB 69
1957 58       EQUB 88
1958 45       EQUB 69
1959 43       EQUB 67
195A 20       EQUB 32
195B 44       EQUB 68
195C 2E       EQUB 46
195D 4C       EQUB 76
195E 4F       EQUB 79
195F 43       EQUB 67
1960 41       EQUB 65
1961 54       EQUB 84
1962 45       EQUB 69
1963 0D       EQUB 13
1964 00       EQUB 00
1965 46       EQUB 70
1966 0F       EQUB 15
1967 52       EQUB 82
1968 45       EQUB 69
1969 43       EQUB 67
196A 4F       EQUB 79
196B 56       EQUB 86
196C 45       EQUB 69
196D 52       EQUB 82
196E 3D       EQUB 61
196F 31       EQUB 49
1970 30       EQUB 48
1971 30       EQUB 48
1972 0D       EQUB 13
1973 00       EQUB 00
1974 50       EQUB 80
1975 05       EQUB 05
1976 E0       EQUB 224
1977 0D       EQUB 13
1978 00       EQUB 00
1979 5A       EQUB 90
197A 05       EQUB 05
197B 20       EQUB 32
197C 0D       EQUB 13
197D 00       EQUB 00
197E 64       EQUB 100
197F 0B       EQUB 11
1980 AD 10 FE LDA &FE10     ; Serial ULA
1983 C9 64    CMP #&64      ; Something to do with baudrate etc? maybe
1985 D0 08    BNE &198F
1987 A9 EA    LDA #&EA
1989 8D 42 10 STA &1042
198C 8D 43 10 STA &1043
198F 4C 62 10 JMP &1062
1992 44       ???
1993 20 43 2E JSR &2E43
1996 45 58    EOR &58
1998 50 31    BVC &19CB
199A 20 22 2B JSR &2B22
199D C3       ???
199E 7E 28 20 ROR &2028,X
19A1 E5 13    SBC &13
19A3 AD 2F 04 LDA &042F
19A6 85 70    STA &70
19A8 AD 30 04 LDA &0430
19AB 85 71    STA &71
19AD AD 31 04 LDA &0431
19B0 8D 05 04 STA &0405
19B3 A9 05    LDA #&05
19B5 8D 00 04 STA &0400
19B8 A2 00    LDX #&00
19BA A0 00    LDY #&00
19BC A5 70    LDA &70
19BE 85 76    STA &76
19C0 A5 71    LDA &71
19C2 85 77    STA &77
19C4 20 26 0C JSR &0C26
19C7 D0 26    BNE &19EF
19C9 A5 76    LDA &76
19CB 29 07    AND #&07
19CD 8D 02 04 STA &0402
19D0 A9 08    LDA #&08
19D2 38       SEC
19D3 ED 02 04 SBC &0402
19D6 8D 02 04 STA &0402
19D9 A9 10    LDA #&10
19DB 8D 01 04 STA &0401
19DE B1 72    LDA (&72),Y
19E0 81 70    STA (&70,X)
19E2 C8       INY
19E3 CE 02 04 DEC &0402
19E6 F0 23    BEQ &1A0B
19E8 E6 70    INC &70
19EA CE 01 04 DEC &0401
19ED D0 EF    BNE &19DE
19EF EE 05 04 INC &0405
19F2 18       CLC
19F3 A5 76    LDA &76
19F5 69 08    ADC #&08
19F7 85 70    STA &70
19F9 A5 77    LDA &77
19FB 69 00    ADC #&00
19FD C9 80    CMP #&80
19FF 90 02    BCC &1A03
1A01 E9 50    SBC #&50
1A03 85 71    STA &71
1A05 CE 00 04 DEC &0400
1A08 D0 B2    BNE &19BC
1A0A 60       RTS
1A0B 18       CLC
1A0C A5 70    LDA &70
1A0E 69 79    ADC #&79
1A10 85 70    STA &70
1A12 A5 71    LDA &71
1A14 69 02    ADC #&02
1A16 C9 80    CMP #&80
1A18 90 03    BCC &1A1D
1A1A 38       SEC
1A1B E9 50    SBC #&50
1A1D 85 71    STA &71
1A1F A9 08    LDA #&08
1A21 8D 02 04 STA &0402
1A24 D0 C4    BNE &19EA
1A26 AD 05 04 LDA &0405
1A29 CD 06 04 CMP &0406
1A2C 90 0D    BCC &1A3B
1A2E AD 06 04 LDA &0406
1A31 69 4E    ADC #&4E
1A33 CD 05 04 CMP &0405
1A36 90 03    BCC &1A3B
1A38 A9 00    LDA #&00
1A3A 60       RTS
1A3B 98       TYA
1A3C 18       CLC
1A3D 69 10    ADC #&10
1A3F A8       TAY
1A40 60       RTS
1A41 20 3A 0D JSR &0D3A
1A44 20 A3 0B JSR &0BA3
1A47 60       RTS
1A48 AD 0E 04 LDA &040E
1A4B F0 1B    BEQ &1A68
1A4D AD 09 04 LDA &0409
1A50 38       SEC
1A51 E9 10    SBC #&10
1A53 8D 09 04 STA &0409
1A56 18       CLC
1A57 A5 74    LDA &74
1A59 69 10    ADC #&10
1A5B 85 74    STA &74
1A5D A5 75    LDA &75
1A5F 69 00    ADC #&00
1A61 85 75    STA &75
1A63 A9 00    LDA #&00
1A65 8D 0E 04 STA &040E
1A68 EE 06 04 INC &0406
1A6B 18       CLC
1A6C AD 03 04 LDA &0403
1A6F 69 08    ADC #&08
1A71 8D 03 04 STA &0403
1A74 AD 04 04 LDA &0404
1A77 69 00    ADC #&00
1A79 8D 04 04 STA &0404
1A7C 18       CLC
1A7D AD 03 04 LDA &0403
1A80 69 78    ADC #&78
1A82 85 76    STA &76
1A84 AD 04 04 LDA &0404
1A87 69 02    ADC #&02
1A89 C9 80    CMP #&80
1A8B 30 03    BMI &1A90
1A8D 38       SEC
1A8E E9 50    SBC #&50
1A90 85 77    STA &77
1A92 EE 08 04 INC &0408
1A95 D0 03    BNE &1A9A
1A97 EE 07 04 INC &0407
1A9A 20 3D 10 JSR &103D
1A9D 20 E5 0D JSR &0DE5
1AA0 18       CLC
1AA1 AD 09 04 LDA &0409
1AA4 69 10    ADC #&10
1AA6 8D 09 04 STA &0409
1AA9 C9 50    CMP #&50
1AAB D0 12    BNE &1ABF
1AAD 18       CLC
1AAE A5 74    LDA &74
1AB0 69 01    ADC #&01
1AB2 85 74    STA &74
1AB4 A5 75    LDA &75
1AB6 69 00    ADC #&00
1AB8 85 75    STA &75
1ABA A9 00    LDA #&00
1ABC 8D 09 04 STA &0409
1ABF A5 74    LDA &74
1AC1 48       PHA
1AC2 A5 75    LDA &75
1AC4 48       PHA
1AC5 A9 00    LDA #&00
1AC7 20 3A 0D JSR &0D3A
1ACA 20 FB 0C JSR &0CFB
1ACD 20 FB 0C JSR &0CFB
1AD0 20 DD 0C JSR &0CDD
1AD3 68       PLA
1AD4 85 75    STA &75
1AD6 68       PLA
1AD7 85 74    STA &74
1AD9 EE 05 04 INC &0405
1ADC 60       RTS
1ADD A9 0E    LDA #&0E
1ADF 8D 00 04 STA &0400
1AE2 20 36 0D JSR &0D36
1AE5 20 FB 0C JSR &0CFB
1AE8 18       CLC
1AE9 A5 74    LDA &74
1AEB 69 30    ADC #&30
1AED 85 74    STA &74
1AEF A5 75    LDA &75
1AF1 69 00    ADC #&00
1AF3 85 75    STA &75
1AF5 CE 00 04 DEC &0400
1AF8 D0 E8    BNE &1AE2
1AFA 60       RTS
1AFB A9 10    LDA #&10
1AFD 8D 01 04 STA &0401
1B00 AC 09 04 LDY &0409
1B03 A2 00    LDX #&00
1B05 B1 72    LDA (&72),Y
1B07 81 76    STA (&76,X)
1B09 C8       INY
1B0A E6 76    INC &76
1B0C D0 02    BNE &1B10
1B0E E6 77    INC &77
1B10 CE 01 04 DEC &0401
1B13 AD 01 04 LDA &0401
1B16 F0 04    BEQ &1B1C
1B18 C9 08    CMP #&08
1B1A D0 E9    BNE &1B05
1B1C 18       CLC
1B1D A5 76    LDA &76
1B1F 69 78    ADC #&78
1B21 85 76    STA &76
1B23 A5 77    LDA &77
1B25 69 02    ADC #&02
1B27 C9 80    CMP #&80
1B29 30 03    BMI &1B2E
1B2B 38       SEC
1B2C E9 50    SBC #&50
1B2E 85 77    STA &77
1B30 AD 01 04 LDA &0401
1B33 D0 D0    BNE &1B05
1B35 60       RTS
1B36 A0 00    LDY #&00
1B38 B1 74    LDA (&74),Y
1B3A 0A       ASL A
1B3B AA       TAX
1B3C BD 48 0D LDA &0D48,X
1B3F 85 72    STA &72
1B41 E8       INX
1B42 BD 48 0D LDA &0D48,X
1B45 85 73    STA &73
1B47 60       RTS
1B48 B7       ???
1B49 27       ???
1B4A A7       ???
1B4B 2D A7 28 AND &28A7
1B4E F7       ???
1B4F 23       ???
1B50 A7       ???
1B51 2D 87 25 AND &2587
1B54 D7       ???
1B55 25 57    AND &57
1B57 28       PLP
1B58 27       ???
1B59 26 77    ROL &77
1B5B 26 C7    ROL &C7
1B5D 26 17    ROL &17
1B5F 27       ???
1B60 67       ???
1B61 27       ???
1B62 07       ???
1B63 28       PLP
1B64 E7       ???
1B65 24 37    BIT &37
1B67 25 67    AND &67
1B69 2C B7 2C BIT &2CB7
1B6C 07       ???
1B6D 2D 57 2D AND &2D57
1B70 47       ???
1B71 24 97    BIT &97
1B73 24 F7    BIT &F7
1B75 2D AD 0E AND &0EAD
1B78 04 D0    TSB &D0
1B7A 1B       ???
1B7B AD 09 04 LDA &0409
1B7E 18       CLC
1B7F 69 10    ADC #&10
1B81 8D 09 04 STA &0409
1B84 38       SEC
1B85 A5 74    LDA &74
1B87 E9 10    SBC #&10
1B89 85 74    STA &74
1B8B A5 75    LDA &75
1B8D E9 00    SBC #&00
1B8F 85 75    STA &75
1B91 A9 FF    LDA #&FF
1B93 8D 0E 04 STA &040E
1B96 CE 06 04 DEC &0406
1B99 38       SEC
1B9A AD 03 04 LDA &0403
1B9D E9 08    SBC #&08
1B9F 8D 03 04 STA &0403
1BA2 85 76    STA &76
1BA4 AD 04 04 LDA &0404
1BA7 E9 00    SBC #&00
1BA9 8D 04 04 STA &0404
1BAC 85 77    STA &77
1BAE 38       SEC
1BAF AD 08 04 LDA &0408
1BB2 E9 01    SBC #&01
1BB4 8D 08 04 STA &0408
1BB7 AD 08 04 LDA &0408
1BBA E9 00    SBC #&00
1BBC 8D 08 04 STA &0408
1BBF 20 3D 10 JSR &103D
1BC2 20 E5 0D JSR &0DE5
1BC5 38       SEC
1BC6 AD 09 04 LDA &0409
1BC9 E9 10    SBC #&10
1BCB 8D 09 04 STA &0409
1BCE 10 12    BPL &1BE2
1BD0 38       SEC
1BD1 A5 74    LDA &74
1BD3 E9 01    SBC #&01
1BD5 85 74    STA &74
1BD7 A5 75    LDA &75
1BD9 E9 00    SBC #&00
1BDB 85 75    STA &75
1BDD A9 40    LDA #&40
1BDF 8D 09 04 STA &0409
1BE2 4C BF 0C JMP &0CBF
1BE5 78       SEI
1BE6 A9 0D    LDA #&0D
1BE8 8D 00 FE STA &FE00
1BEB AD 08 04 LDA &0408
1BEE 8D 01 FE STA &FE01
1BF1 A9 0C    LDA #&0C
1BF3 8D 00 FE STA &FE00
1BF6 AD 07 04 LDA &0407
1BF9 8D 01 FE STA &FE01
1BFC 58       CLI
1BFD 60       RTS
1BFE A2 0E    LDX #&0E
1C00 A0 07    LDY #&07
1C02 20 76 0E JSR &0E76     ; PALCHANGE 14 -> 7
1C05 A2 0D    LDX #&0D
1C07 A0 04    LDY #&04
1C09 20 76 0E JSR &0E76     ; PALCHANGE 13 -> 4
1C0C A2 0C    LDX #&0C
1C0E A0 00    LDY #&00
1C10 20 76 0E JSR &0E76     ; PALCHANGE 12 -> 0
1C13 A2 0A    LDX #&0A
1C15 A0 0F    LDY #&0F
1C17 20 76 0E JSR &0E76     ; PALCHANGE 10 -> 15
1C1A 60       RTS
1C1B 20 8C 0E JSR &0E8C     ; Increment level number (&E1B)
1C1E A9 30    LDA #&30
1C20 8D 04 04 STA &0404
1C23 A9 00    LDA #&00
1C25 8D 03 04 STA &0403
1C28 8D 08 04 STA &0408
1C2B A9 06    LDA #&06
1C2D 8D 07 04 STA &0407
1C30 A9 F0    LDA #&F0
1C32 8D 09 04 STA &0409
1C35 A9 16    LDA #&16
1C37 20 EE FF JSR &FFEE
1C3A A9 02    LDA #&02
1C3C 20 EE FF JSR &FFEE     ; Mode 2
1C3F 20 3B 0F JSR &0F3B
1C42 20 FE 0D JSR &0DFE
1C45 A9 B0    LDA #&B0
1C47 8D 06 04 STA &0406
1C4A A9 00    LDA #&00
1C4C 8D 0E 04 STA &040E
1C4F A9 05    LDA #&05
1C51 8D 05 04 STA &0405
1C54 A5 82    LDA &82
1C56 85 74    STA &74
1C58 A5 83    LDA &83
1C5A 85 75    STA &75
1C5C A9 50    LDA #&50
1C5E AE 57 04 LDX &0457
1C61 D0 02    BNE &1C65
1C63 A9 F0    LDA #&F0
1C65 8D 0A 04 STA &040A
1C68 A9 FF    LDA #&FF
1C6A 8D 8A 03 STA &038A
1C6D 20 48 0C JSR &0C48
1C70 CE 0A 04 DEC &040A
1C73 D0 F3    BNE &1C68
1C75 60       RTS
1C76 8E F8 07 STX &07F8     ; Routine to reprogam colours (&E76)
1C79 8C F9 07 STY &07F9
1C7C A2 F8    LDX #&F8
1C7E A0 07    LDY #&07
1C80 A9 0C    LDA #&0C
1C82 20 F1 FF JSR &FFF1     ; via OSWord 12
1C85 AE F8 07 LDX &07F8
1C88 AC F9 07 LDY &07F9
1C8B 60       RTS
1C8C AD 3B 04 LDA &043B     ; &E8C?
1C8F AA       TAX           ; Save level number in X
1C90 18       CLC
1C91 F8       SED
1C92 69 01    ADC #&01      ; Add 1 to level number
1C94 8D 3B 04 STA &043B     ; and store it back
1C97 D8       CLD
1C98 C9 05    CMP #&05
1C9A 90 12    BCC &1CAE     ; If less than 5, jump to 1CAE
1C9C A9 00    LDA #&00
1C9E 8D 57 04 STA &0457     ; 457??
1CA1 8A       TXA           ; Retrieve original level number
1CA2 29 03    AND #&03
1CA4 8D 0B 04 STA &040B
1CA7 38       SEC
1CA8 A9 03    LDA #&03
1CAA ED 0B 04 SBC &040B
1CAD AA       TAX
1CAE 8A       TXA
1CAF 29 03    AND #&03
1CB1 0A       ASL A
1CB2 0A       ASL A
1CB3 0A       ASL A
1CB4 AA       TAX
1CB5 BD 64 04 LDA &0464,X
1CB8 E8       INX
1CB9 85 74    STA &74
1CBB BD 64 04 LDA &0464,X
1CBE E8       INX
1CBF 85 75    STA &75
1CC1 BD 64 04 LDA &0464,X
1CC4 E8       INX
1CC5 85 7E    STA &7E
1CC7 BD 64 04 LDA &0464,X
1CCA E8       INX
1CCB 85 7F    STA &7F
1CCD BD 64 04 LDA &0464,X
1CD0 E8       INX
1CD1 85 78    STA &78
1CD3 BD 64 04 LDA &0464,X
1CD6 E8       INX
1CD7 85 79    STA &79
1CD9 BD 64 04 LDA &0464,X
1CDC E8       INX
1CDD 85 80    STA &80
1CDF BD 64 04 LDA &0464,X
1CE2 E8       INX
1CE3 85 81    STA &81
1CE5 20 8F 0F JSR &0F8F
1CE8 20 F7 0E JSR &0EF7
1CEB A9 18    LDA #&18
1CED 85 78    STA &78
1CEF A9 05    LDA #&05
1CF1 85 79    STA &79
1CF3 20 F7 0E JSR &0EF7
1CF6 60       RTS
1CF7 A0 00    LDY #&00
1CF9 B1 78    LDA (&78),Y
1CFB C9 FF    CMP #&FF
1CFD F0 18    BEQ &1D17
1CFF C8       INY
1D00 AA       TAX
1D01 B1 78    LDA (&78),Y
1D03 C8       INY
1D04 85 76    STA &76
1D06 B1 78    LDA (&78),Y
1D08 C8       INY
1D09 85 77    STA &77
1D0B 8C 0B 04 STY &040B
1D0E 20 18 0F JSR &0F18
1D11 AC 0B 04 LDY &040B
1D14 4C F9 0E JMP &0EF9
1D17 60       RTS
1D18 18       CLC
1D19 A5 76    LDA &76
1D1B 65 82    ADC &82
1D1D 85 76    STA &76
1D1F A5 77    LDA &77
1D21 65 83    ADC &83
1D23 85 77    STA &77
1D25 AD 57 04 LDA &0457
1D28 D0 0B    BNE &1D35
1D2A E0 07    CPX #&07
1D2C D0 07    BNE &1D35
1D2E A0 30    LDY #&30
1D30 8A       TXA
1D31 91 82    STA (&82),Y
1D33 A2 00    LDX #&00
1D35 A0 00    LDY #&00
1D37 8A       TXA
1D38 91 76    STA (&76),Y
1D3A 60       RTS
1D3B AD 3B 04 LDA &043B
1D3E C9 10    CMP #&10
1D40 90 02    BCC &1D44
1D42 A9 09    LDA #&09
1D44 0A       ASL A
1D45 0A       ASL A
1D46 AA       TAX
1D47 BD 84 04 LDA &0484,X
1D4A E8       INX
1D4B 8D 4E 04 STA &044E
1D4E E8       INX
1D4F BD 84 04 LDA &0484,X
1D52 E8       INX
1D53 8D 4F 04 STA &044F
1D56 BD 84 04 LDA &0484,X
1D59 E8       INX
1D5A 8D 50 04 STA &0450
1D5D 8D 42 04 STA &0442
1D60 A9 00    LDA #&00
1D62 8D 41 04 STA &0441
1D65 AD 3B 04 LDA &043B
1D68 29 03    AND #&03
1D6A AA       TAX
1D6B BD AC 04 LDA &04AC,X
1D6E A8       TAY
1D6F A2 0F    LDX #&0F      ; &F6F on download
1D71 20 76 0E JSR &0E76     ; PALCHANGE 15 -> ? (different snake colour for different levels)
1D74 A2 0B    LDX #&0B
1D76 20 76 0E JSR &0E76     ; PALCHANGE 11 -> ? (second enemy colour?)
1D79 60       RTS
1D7A A9 FF    LDA #&FF
1D7C 8D 10 04 STA &0410
1D7F 8D 4C 04 STA &044C
1D82 A9 00    LDA #&00
1D84 8D 46 04 STA &0446
1D87 A9 0F    LDA #&0F
1D89 A2 00    LDX #&00
1D8B 20 F4 FF JSR &FFF4
1D8E 60       RTS
1D8F 20 17 10 JSR &1017
1D92 A2 31    LDX #&31
1D94 A0 00    LDY #&00
1D96 8C 00 04 STY &0400
1D99 18       CLC
1D9A 8A       TXA
1D9B 65 82    ADC &82
1D9D 85 76    STA &76
1D9F 98       TYA
1DA0 65 83    ADC &83
1DA2 85 77    STA &77
1DA4 AC 00 04 LDY &0400
1DA7 B1 74    LDA (&74),Y
1DA9 D0 0F    BNE &1DBA
1DAB C8       INY
1DAC B1 74    LDA (&74),Y
1DAE AA       TAX
1DAF C8       INY
1DB0 B1 74    LDA (&74),Y
1DB2 C8       INY
1DB3 8C 00 04 STY &0400
1DB6 A8       TAY
1DB7 4C 99 0F JMP &0F99
1DBA C9 FF    CMP #&FF
1DBC D0 09    BNE &1DC7
1DBE A5 82    LDA &82
1DC0 85 74    STA &74
1DC2 A5 83    LDA &83
1DC4 85 75    STA &75
1DC6 60       RTS
1DC7 8D 0B 04 STA &040B
1DCA 2C 0B 04 BIT &040B
1DCD 10 10    BPL &1DDF
1DCF 70 07    BVS &1DD8
1DD1 A2 01    LDX #&01
1DD3 A0 00    LDY #&00
1DD5 4C EC 0F JMP &0FEC
1DD8 A2 FF    LDX #&FF
1DDA A0 FF    LDY #&FF
1DDC 4C EC 0F JMP &0FEC
1DDF 70 07    BVS &1DE8
1DE1 A2 D0    LDX #&D0
1DE3 A0 FF    LDY #&FF
1DE5 4C EC 0F JMP &0FEC
1DE8 A2 30    LDX #&30
1DEA A0 00    LDY #&00
1DEC 29 1F    AND #&1F
1DEE 8D 01 04 STA &0401
1DF1 20 0D 10 JSR &100D
1DF4 18       CLC
1DF5 8A       TXA
1DF6 65 76    ADC &76
1DF8 85 76    STA &76
1DFA 98       TYA
1DFB 65 77    ADC &77
1DFD 85 77    STA &77
1DFF CE 01 04 DEC &0401
1E02 D0 ED    BNE &1DF1
1E04 20 0D 10 JSR &100D
1E07 EE 00 04 INC &0400
1E0A 4C A4 0F JMP &0FA4
1E0D 98       TYA
1E0E 48       PHA
1E0F A9 00    LDA #&00
1E11 A8       TAY
1E12 91 76    STA (&76),Y
1E14 68       PLA
1E15 A8       TAY
1E16 60       RTS
1E17 A9 00    LDA #&00
1E19 85 82    STA &82
1E1B 85 70    STA &70
1E1D A9 09    LDA #&09
1E1F 85 83    STA &83
1E21 85 71    STA &71
1E23 A9 03    LDA #&03
1E25 A0 00    LDY #&00
1E27 91 70    STA (&70),Y
1E29 C8       INY
1E2A D0 FB    BNE &1E27
1E2C E6 71    INC &71
1E2E 91 70    STA (&70),Y
1E30 C8       INY
1E31 D0 FB    BNE &1E2E
1E33 E6 71    INC &71
1E35 91 70    STA (&70),Y
1E37 C8       INY
1E38 C0 A0    CPY #&A0
1E3A D0 F9    BNE &1E35
1E3C 60       RTS
1E3D 20 48 10 JSR &1048
1E40 C9 04    CMP #&04
1E42 D0 F9    BNE &1E3D
1E44 20 42 1A JSR &1A42
1E47 60       RTS
1E48 A9 C5    LDA #&C5
1E4A 8D 4C FE STA &FE4C
1E4D A9 E5    LDA #&E5
1E4F 8D 4C FE STA &FE4C
1E52 A9 10    LDA #&10
1E54 8D 00 FE STA &FE00
1E57 AD 01 FE LDA &FE01
1E5A 38       SEC
1E5B E9 06    SBC #&06
1E5D 60       RTS
1E5E 20 0D 02 JSR &020D
1E61 EE 20 A3 INC &A320
1E64 10 20    BPL &1E86
1E66 69 1F    ADC #&1F
1E68 20 07 11 JSR &1107     ; Main entry?
1E6B 20 A3 10 JSR &10A3     ; Setup events etc
1E6E 20 1B 0E JSR &0E1B     ; Increment level
1E71 20 83 11 JSR &1183
1E74 20 D4 11 JSR &11D4
1E77 20 49 13 JSR &1349     ; Read clock to 0x413
1E7A 20 5D 23 JSR &235D
1E7D A2 FF    LDX #&FF      ; Stack reset (&107D)
1E7F 9A       TXS
1E80 20 C3 13 JSR &13C3     ; &1080
1E83 20 3C 11 JSR &113C
1E86 20 98 1C JSR &1C98
1E89 20 3C 23 JSR &233C
1E8C 20 16 1B JSR &1B16
1E8F 20 D7 10 JSR &10D7
1E92 20 E6 10 JSR &10E6
1E95 20 9B 10 JSR &109B
1E98 4C 7D 10 JMP &107D     ; Loop back to stack reset at &107D
1E9B AD 0F 04 LDA &040F
1E9E C9 02    CMP #&02      ; Game speed (&109E)
1EA0 90 F9    BCC &1E9B
1EA2 60       RTS
1EA3 A9 26    LDA #&26      ; Set up events (&10A3)
1EA5 8D 20 02 STA &0220
1EA8 A9 11    LDA #&11
1EAA 8D 21 02 STA &0221
1EAD A9 0E    LDA #&0E
1EAF A2 04    LDX #&04
1EB1 20 F4 FF JSR &FFF4     ; *FX 14,4 (Vertical sync)
1EB4 A9 0E    LDA #&0E
1EB6 A2 06    LDX #&06
1EB8 20 F4 FF JSR &FFF4     ; *FX 14,6 (Escape)
1EBB A9 7E    LDA #&7E      ; *** level jump, lda #03 here, then STA &043B below (A9 03 8D 3B 04)
1EBD 20 F4 FF JSR &FFF4     ; *FX 126 (Clear escape condition)
1EC0 A9 E5    LDA #&E5
1EC2 A2 00    LDX #&00
1EC4 A0 00    LDY #&00
1EC6 20 F4 FF JSR &FFF4     ; *FX 229,0
1EC9 A2 FF    LDX #&FF
1ECB A0 FF    LDY #&FF
1ECD 20 C3 13 JSR &13C3
1ED0 88       DEY
1ED1 D0 FA    BNE &1ECD
1ED3 CA       DEX
1ED4 D0 F5    BNE &1ECB
1ED6 60       RTS
1ED7 A9 BC    LDA #&BC
1ED9 20 67 14 JSR &1467
1EDC D0 07    BNE &1EE5
1EDE A9 AE    LDA #&AE
1EE0 20 67 14 JSR &1467
1EE3 D0 F9    BNE &1EDE
1EE5 60       RTS
1EE6 A9 EF    LDA #&EF
1EE8 20 67 14 JSR &1467
1EEB D0 09    BNE &1EF6
1EED A9 D2    LDA #&D2
1EEF A2 FF    LDX #&FF
1EF1 A0 00    LDY #&00
1EF3 20 F4 FF JSR &FFF4
1EF6 A9 A9    LDA #&A9
1EF8 20 67 14 JSR &1467
1EFB D0 09    BNE &1F06
1EFD A9 D2    LDA #&D2
1EFF A2 00    LDX #&00
1F01 A0 00    LDY #&00
1F03 20 F4 FF JSR &FFF4
1F06 60       RTS
1F07 A9 03    LDA #&03      ; setup (&1107)
1F09 8D 1A 04 STA &041A     ; 3 lives
1F0C A9 FF    LDA #&FF
1F0E 8D 57 04 STA &0457
1F11 8D 59 04 STA &0459
1F14 A9 00    LDA #&00
1F16 8D 3B 04 STA &043B     ; Level number ?
1F19 8D 19 04 STA &0419
1F1C 8D 3E 04 STA &043E
1F1F 8D 3F 04 STA &043F
1F22 8D 40 04 STA &0440
1F25 60       RTS
1F26 C9 04    CMP #&04      ; Event Handler
1F28 F0 0E    BEQ &1F38
1F2A A9 00    LDA #&00
1F2C 8D 1B 04 STA &041B     ; Dead
1F2F 8D 19 04 STA &0419     ; Lives?
1F32 A9 01    LDA #&01
1F34 8D 1A 04 STA &041A
1F37 60       RTS
1F38 EE 0F 04 INC &040F     ; On a vertical sync event, incrememnt 40F
1F3B 60       RTS
1F3C A9 80    LDA #&80      ; &113C
1F3E 85 78    STA &78
1F40 A9 03    LDA #&03
1F42 85 79    STA &79
1F44 A9 06    LDA #&06      ; 1 disable snakes, 2 is 1 snake etc
1F46 8D 56 04 STA &0456     ; &456 = (snakes+1)
1F49 A0 0D    LDY #&0D
1F4B B1 78    LDA (&78),Y
1F4D 99 28 04 STA &0428,Y
1F50 88       DEY
1F51 10 F8    BPL &1F4B
1F53 20 D0 13 JSR &13D0
1F56 20 78 11 JSR &1178
1F59 AD 28 04 LDA &0428
1F5C D0 03    BNE &1F61
1F5E 20 6A 13 JSR &136A
1F61 20 6A 11 JSR &116A
1F64 CE 56 04 DEC &0456
1F67 D0 E0    BNE &1F49
1F69 60       RTS
1F6A 18       CLC           ; Add 16 to &78/&79 (&116A)
1F6B A5 78    LDA &78
1F6D 69 10    ADC #&10
1F6F 85 78    STA &78
1F71 A5 79    LDA &79
1F73 69 00    ADC #&00
1F75 85 79    STA &79
1F77 60       RTS
1F78 A0 0D    LDY #&0D
1F7A B9 28 04 LDA &0428,Y
1F7D 91 78    STA (&78),Y
1F7F 88       DEY
1F80 10 F8    BPL &1F7A
1F82 60       RTS
1F83 A9 80    LDA #&80
1F85 85 78    STA &78
1F87 A9 03    LDA #&03
1F89 85 79    STA &79
1F8B A2 00    LDX #&00
1F8D 8E 46 04 STX &0446
1F90 BD C1 11 LDA &11C1,X
1F93 9D 28 04 STA &0428,X
1F96 E8       INX
1F97 E0 0E    CPX #&0E
1F99 D0 F5    BNE &1F90
1F9B AD 57 04 LDA &0457
1F9E D0 10    BNE &1FB0
1FA0 A2 00    LDX #&00
1FA2 BD CF 11 LDA &11CF,X
1FA5 9D 2F 04 STA &042F,X
1FA8 E8       INX
1FA9 E0 05    CPX #&05
1FAB D0 F5    BNE &1FA2
1FAD EE 2A 04 INC &042A
1FB0 AD 1A 04 LDA &041A
1FB3 F0 06    BEQ &1FBB
1FB5 8D 19 04 STA &0419
1FB8 CE 19 04 DEC &0419
1FBB 20 A0 0B JSR &0BA0
1FBE 4C 78 11 JMP &1178
1FC1 00       BRK
1FC2 00       BRK
1FC3 02       ???
1FC4 01 14    ORA (&14,X)
1FC6 01 00    ORA (&00,X)
1FC8 A8       TAY
1FC9 41 05    EOR (&05,X)
1FCB 01 01    ORA (&01,X)
1FCD 00       BRK
1FCE 00       BRK
1FCF 60       RTS
1FD0 7F       ???
1FD1 DC       ???
1FD2 0C 2C A9 TSB &A92C
1FD5 90 85    BCC &1F5C
1FD7 78       SEI
1FD8 A9 03    LDA #&03
1FDA 85 79    STA &79
1FDC A9 05    LDA #&05
1FDE 8D 56 04 STA &0456
1FE1 AD 56 04 LDA &0456
1FE4 8D 2B 04 STA &042B
1FE7 A9 01    LDA #&01
1FE9 8D 28 04 STA &0428
1FEC A9 04    LDA #&04
1FEE 8D 2D 04 STA &042D
1FF1 AD 4E 04 LDA &044E
1FF4 8D 2C 04 STA &042C
1FF7 20 78 11 JSR &1178
1FFA 20 6A 11 JSR &116A
1FFD CE 56 04 DEC &0456
2000 D0 DF    BNE &1FE1
2002 60       RTS
2003 A9 05    LDA #&05
2005 8D 00 04 STA &0400
2008 AD 00 04 LDA &0400
200B 0A       ASL A
200C 0A       ASL A
200D A8       TAY
200E 20 52 12 JSR &1252
2011 D0 28    BNE &203B
2013 20 53 13 JSR &1353
2016 29 01    AND #&01
2018 F0 21    BEQ &203B
201A AD 00 04 LDA &0400
201D 0A       ASL A
201E 0A       ASL A
201F A8       TAY
2020 B1 80    LDA (&80),Y
2022 C8       INY
2023 8D 33 04 STA &0433
2026 B1 80    LDA (&80),Y
2028 C8       INY
2029 8D 32 04 STA &0432
202C B1 80    LDA (&80),Y
202E C8       INY
202F 8D 2F 04 STA &042F
2032 B1 80    LDA (&80),Y
2034 C8       INY
2035 8D 30 04 STA &0430
2038 4C 41 12 JMP &1241
203B CE 00 04 DEC &0400
203E 10 C8    BPL &2008
2040 60       RTS
2041 A9 08    LDA #&08
2043 8D 2D 04 STA &042D
2046 AD 4F 04 LDA &044F
2049 8D 2E 04 STA &042E
204C A9 02    LDA #&02
204E 8D 2A 04 STA &042A
2051 60       RTS
2052 B1 80    LDA (&80),Y
2054 8D 0B 04 STA &040B
2057 0A       ASL A
2058 0A       ASL A
2059 6D 0B 04 ADC &040B
205C 8D 31 04 STA &0431
205F 8D 05 04 STA &0405
2062 20 26 0C JSR &0C26
2065 60       RTS
2066 CE 2E 04 DEC &042E
2069 F0 06    BEQ &2071
206B A9 16    LDA #&16
206D 20 41 0C JSR &0C41
2070 60       RTS
2071 A9 01    LDA #&01
2073 8D 2D 04 STA &042D
2076 60       RTS
2077 20 A1 13 JSR &13A1
207A D0 01    BNE &207D
207C 60       RTS
207D 20 53 13 JSR &1353
2080 C9 B4    CMP #&B4
2082 90 0F    BCC &2093
2084 20 53 13 JSR &1353
2087 C9 B4    CMP #&B4
2089 90 19    BCC &20A4
208B 20 53 13 JSR &1353
208E 29 03    AND #&03
2090 4C 96 12 JMP &1296
2093 AD 2A 04 LDA &042A
2096 C9 00    CMP #&00
2098 F0 49    BEQ &20E3
209A C9 01    CMP #&01
209C F0 48    BEQ &20E6
209E C9 02    CMP #&02
20A0 F0 60    BEQ &2102
20A2 D0 4D    BNE &20F1
20A4 AD 8A 03 LDA &038A
20A7 38       SEC
20A8 ED 32 04 SBC &0432
20AB 8D 3A 04 STA &043A
20AE AD 8B 03 LDA &038B
20B1 38       SEC
20B2 ED 33 04 SBC &0433
20B5 8D 39 04 STA &0439
20B8 0A       ASL A
20B9 90 09    BCC &20C4
20BB A9 00    LDA #&00
20BD 38       SEC
20BE ED 39 04 SBC &0439
20C1 8D 39 04 STA &0439
20C4 AD 3A 04 LDA &043A
20C7 0A       ASL A
20C8 90 09    BCC &20D3
20CA A9 00    LDA #&00
20CC 38       SEC
20CD ED 3A 04 SBC &043A
20D0 8D 3A 04 STA &043A
20D3 AD 3A 04 LDA &043A
20D6 CD 39 04 CMP &0439
20D9 90 0E    BCC &20E9
20DB AD 8A 03 LDA &038A
20DE CD 32 04 CMP &0432
20E1 B0 03    BCS &20E6
20E3 4C 1B 13 JMP &131B
20E6 4C 2C 13 JMP &132C
20E9 AD 8B 03 LDA &038B
20EC CD 33 04 CMP &0433
20EF B0 11    BCS &2102
20F1 20 41 17 JSR &1741
20F4 F0 4A    BEQ &2140
20F6 20 3A 17 JSR &173A
20F9 F0 4B    BEQ &2146
20FB 20 33 17 JSR &1733
20FE F0 43    BEQ &2143
2100 D0 3B    BNE &213D
2102 20 48 17 JSR &1748
2105 F0 36    BEQ &213D
2107 20 33 17 JSR &1733
210A F0 37    BEQ &2143
210C 20 3A 17 JSR &173A
210F F0 35    BEQ &2146
2111 D0 2D    BNE &2140
2113 AD 8A 03 LDA &038A
2116 CD 32 04 CMP &0432
2119 B0 11    BCS &212C
211B 20 33 17 JSR &1733
211E F0 23    BEQ &2143
2120 20 48 17 JSR &1748
2123 F0 18    BEQ &213D
2125 20 41 17 JSR &1741
2128 F0 16    BEQ &2140
212A D0 1A    BNE &2146
212C 20 3A 17 JSR &173A
212F F0 15    BEQ &2146
2131 20 41 17 JSR &1741
2134 F0 0A    BEQ &2140
2136 20 48 17 JSR &1748
2139 F0 02    BEQ &213D
213B D0 06    BNE &2143
213D 4C C0 14 JMP &14C0
2140 4C 9C 14 JMP &149C
2143 4C D5 14 JMP &14D5
2146 4C EA 14 JMP &14EA
2149 A2 13    LDX #&13
214B A0 04    LDY #&04
214D A9 01    LDA #&01
214F 20 F1 FF JSR &FFF1     ; OSWord 1, Read system clock
2152 60       RTS
2153 AD 13 04 LDA &0413
2156 29 42    AND #&42
2158 18       CLC
2159 69 3E    ADC #&3E
215B 0A       ASL A
215C 0A       ASL A
215D 2E 15 04 ROL &0415
2160 2E 14 04 ROL &0414
2163 2E 13 04 ROL &0413
2166 AD 13 04 LDA &0413
2169 60       RTS
216A AD 1B 04 LDA &041B     ; &136A
216D D0 31    BNE &21A0     ; If player alive, exit
216F 20 42 1A JSR &1A42
2172 20 82 0F JSR &0F82
2175 20 CB 19 JSR &19CB
2178 A9 FF    LDA #&FF      ; Set dead flag
217A 8D 1B 04 STA &041B
217D CE 1A 04 DEC &041A     ; Decrement lives (&EA this out for infinite lives)
2180 F0 06    BEQ &2188     ; Are lives 0?
2182 20 1E 0E JSR &0E1E
2185 4C 71 10 JMP &1071
2188 A9 64    LDA #&64      ; Out of lives..
218A 8D 00 04 STA &0400
218D A9 13    LDA #&13      ; *FX 19
218F 20 F4 FF JSR &FFF4
2192 CE 00 04 DEC &0400     ; Delay 2 seconds
2195 D0 F6    BNE &218D
2197 20 7A 0F JSR &0F7A
219A 20 E6 20 JSR &20E6
219D 4C 62 10 JMP &1062
21A0 60       RTS
21A1 AD 31 04 LDA &0431
21A4 18       CLC
21A5 69 06    ADC #&06
21A7 CD 06 04 CMP &0406
21AA 90 0B    BCC &21B7
21AC AD 06 04 LDA &0406
21AF 18       CLC
21B0 69 50    ADC #&50
21B2 CD 31 04 CMP &0431
21B5 B0 08    BCS &21BF
21B7 A9 04    LDA #&04
21B9 8D 2D 04 STA &042D
21BC A9 00    LDA #&00
21BE 60       RTS
21BF A9 FF    LDA #&FF
21C1 60       RTS
21C2 60       RTS
21C3 A9 00    LDA #&00
21C5 8D 0F 04 STA &040F
21C8 8D 55 04 STA &0455
21CB 60       RTS
21CC 72 5F    ADC (&5F)
21CE 63       ???
21CF 68       PLA
21D0 AD 28 04 LDA &0428
21D3 F0 00    BEQ &21D5
21D5 CE 2B 04 DEC &042B
21D8 F0 04    BEQ &21DE
21DA 20 29 14 JSR &1429     ; Check some stuff, and keys
21DD 60       RTS
21DE AD 2C 04 LDA &042C
21E1 8D 2B 04 STA &042B
21E4 60       RTS
21E5 AD 28 04 LDA &0428
21E8 0A       ASL A
21E9 0A       ASL A
21EA 0A       ASL A
21EB 8D 0B 04 STA &040B
21EE AD 29 04 LDA &0429
21F1 29 04    AND #&04
21F3 18       CLC
21F4 6D 0B 04 ADC &040B
21F7 18       CLC
21F8 6D 2A 04 ADC &042A
21FB 0A       ASL A
21FC AA       TAX
21FD BD 09 14 LDA &1409,X
2200 85 72    STA &72
2202 E8       INX
2203 BD 09 14 LDA &1409,X
2206 85 73    STA &73
2208 60       RTS
2209 E7       ???
220A 29 87    AND #&87
220C 2A       ROL A
220D 27       ???
220E 2B       ???
220F C7       ???
2210 2B       ???
2211 37       ???
2212 2A       ROL A
2213 D7       ???
2214 2A       ROL A
2215 77       ???
2216 2B       ???
2217 17       ???
2218 2C A7 28 BIT &28A7
221B 47       ???
221C 29 A7    AND #&A7
221E 28       PLP
221F 47       ???
2220 29 F7    AND #&F7
2222 28       PLP
2223 97       ???
2224 29 F7    AND #&F7
2226 28       PLP
2227 97       ???
2228 29       EQUB 41
2229 AD 2D 04 LDA &042D     ; &1429
222C 0A       ASL A
222D AA       TAX
222E BD 3E 14 LDA &143E,X
2231 8D 0C 04 STA &040C
2234 E8       INX
2235 BD 3E 14 LDA &143E,X
2238 8D 0D 04 STA &040D
223B 6C 0C 04 JMP (&040C)
223E 5E 14 5F LSR &5F14,X
2241 14 1E    TRB &1E
2243 15 50    ORA &50,X
2245 14 03    TRB &03
2247 12 63    ORA (&63)
2249 1C 56 1D TRB &1D56
224C 76 19    ROR &19,X
224E 66 12    ROR &12
2250 CE 2E 04 DEC &042E
2253 D0 08    BNE &225D
2255 A9 01    LDA #&01
2257 8D 2D 04 STA &042D
225A 20 A0 0B JSR &0BA0
225D 60       RTS
225E 60       RTS
225F AD 28 04 LDA &0428
2262 F0 0E    BEQ &2272
2264 4C 77 12 JMP &1277
2267 AA       TAX           ; Keyboard scan (&1467)
2268 A0 FF    LDY #&FF
226A A9 81    LDA #&81
226C 20 F4 FF JSR &FFF4
226F E0 FF    CPX #&FF
2271 60       RTS
2272 20 B3 18 JSR &18B3
2275 A9 B6    LDA #&B6      ; Check keys
2277 20 67 14 JSR &1467
227A F0 1D    BEQ &2299
227C A9 9E    LDA #&9E
227E 20 67 14 JSR &1467
2281 F0 19    BEQ &229C
2283 A9 BD    LDA #&BD
2285 20 67 14 JSR &1467
2288 F0 36    BEQ &22C0
228A A9 B7    LDA #&B7
228C 20 67 14 JSR &1467
228F F0 44    BEQ &22D5
2291 A9 97    LDA #&97
2293 20 67 14 JSR &1467
2296 F0 52    BEQ &22EA
2298 60       RTS
2299 4C A7 19 JMP &19A7
229C A9 03    LDA #&03
229E CD 2A 04 CMP &042A
22A1 F0 03    BEQ &22A6
22A3 4C 0D 15 JMP &150D
22A6 20 41 17 JSR &1741
22A9 D0 06    BNE &22B1
22AB CE 33 04 DEC &0433
22AE 4C B2 14 JMP &14B2
22B1 60       RTS
22B2 A9 02    LDA #&02
22B4 8D 2D 04 STA &042D
22B7 A9 05    LDA #&05
22B9 8D 2E 04 STA &042E
22BC 20 29 14 JSR &1429
22BF 60       RTS
22C0 A9 02    LDA #&02
22C2 CD 2A 04 CMP &042A
22C5 F0 03    BEQ &22CA
22C7 4C 0D 15 JMP &150D
22CA 20 48 17 JSR &1748
22CD D0 E2    BNE &22B1
22CF EE 33 04 INC &0433
22D2 4C B2 14 JMP &14B2
22D5 A9 00    LDA #&00
22D7 CD 2A 04 CMP &042A
22DA F0 03    BEQ &22DF
22DC 4C 0D 15 JMP &150D
22DF 20 33 17 JSR &1733
22E2 D0 CD    BNE &22B1
22E4 CE 32 04 DEC &0432
22E7 4C FF 14 JMP &14FF
22EA A9 01    LDA #&01
22EC CD 2A 04 CMP &042A
22EF F0 03    BEQ &22F4
22F1 4C 0D 15 JMP &150D
22F4 20 3A 17 JSR &173A
22F7 D0 B8    BNE &22B1
22F9 EE 32 04 INC &0432
22FC 4C FF 14 JMP &14FF
22FF A9 02    LDA #&02
2301 8D 2D 04 STA &042D
2304 A9 04    LDA #&04
2306 8D 2E 04 STA &042E
2309 20 29 14 JSR &1429
230C 60       RTS
230D 8D 2A 04 STA &042A
2310 A9 00    LDA #&00
2312 8D 29 04 STA &0429
2315 20 A0 0B JSR &0BA0
2318 A9 01    LDA #&01
231A 8D 2D 04 STA &042D
231D 60       RTS
231E AD 28 04 LDA &0428
2321 D0 0A    BNE &232D
2323 A9 B6    LDA #&B6
2325 20 67 14 JSR &1467
2328 D0 03    BNE &232D
232A 4C A7 19 JMP &19A7
232D A9 FF    LDA #&FF
232F 8D 38 04 STA &0438
2332 20 B3 18 JSR &18B3
2335 D0 01    BNE &2338
2337 60       RTS
2338 AE 2A 04 LDX &042A
233B F0 12    BEQ &234F
233D CA       DEX
233E F0 0C    BEQ &234C
2340 CA       DEX
2341 F0 06    BEQ &2349
2343 CA       DEX
2344 F0 00    BEQ &2346
2346 4C 36 16 JMP &1636
2349 4C E8 15 JMP &15E8
234C 4C A5 15 JMP &15A5
234F AD 2F 04 LDA &042F
2352 29 04    AND #&04
2354 D0 11    BNE &2367
2356 38       SEC
2357 AD 2F 04 LDA &042F
235A E9 78    SBC #&78
235C 8D 2F 04 STA &042F
235F AD 30 04 LDA &0430
2362 E9 02    SBC #&02
2364 8D 30 04 STA &0430
2367 38       SEC
2368 AD 2F 04 LDA &042F
236B E9 04    SBC #&04
236D 8D 2F 04 STA &042F
2370 AD 30 04 LDA &0430
2373 E9 00    SBC #&00
2375 C9 30    CMP #&30
2377 B0 02    BCS &237B
2379 69 50    ADC #&50
237B 8D 30 04 STA &0430
237E 20 A0 0B JSR &0BA0
2381 AD 2F 04 LDA &042F
2384 85 70    STA &70
2386 18       CLC
2387 AD 30 04 LDA &0430
238A 69 05    ADC #&05
238C C9 80    CMP #&80
238E 90 02    BCC &2392
2390 E9 50    SBC #&50
2392 85 71    STA &71
2394 20 BD 16 JSR &16BD
2397 CE 2E 04 DEC &042E
239A D0 05    BNE &23A1
239C A9 01    LDA #&01
239E 8D 2D 04 STA &042D
23A1 EE 29 04 INC &0429
23A4 60       RTS
23A5 AD 2F 04 LDA &042F
23A8 85 70    STA &70
23AA AD 30 04 LDA &0430
23AD 85 71    STA &71
23AF 20 BD 16 JSR &16BD
23B2 AD 2F 04 LDA &042F
23B5 29 04    AND #&04
23B7 F0 11    BEQ &23CA
23B9 18       CLC
23BA AD 2F 04 LDA &042F
23BD 69 78    ADC #&78
23BF 8D 2F 04 STA &042F
23C2 AD 30 04 LDA &0430
23C5 69 02    ADC #&02
23C7 8D 30 04 STA &0430
23CA 18       CLC
23CB AD 2F 04 LDA &042F
23CE 69 04    ADC #&04
23D0 8D 2F 04 STA &042F
23D3 AD 30 04 LDA &0430
23D6 69 00    ADC #&00
23D8 C9 80    CMP #&80
23DA 90 03    BCC &23DF
23DC 38       SEC
23DD E9 50    SBC #&50
23DF 8D 30 04 STA &0430
23E2 20 A0 0B JSR &0BA0
23E5 4C 97 15 JMP &1597
23E8 AD 28 04 LDA &0428
23EB D0 18    BNE &2405
23ED AD 06 04 LDA &0406
23F0 C9 A0    CMP #&A0
23F2 B0 11    BCS &2405
23F4 AD 31 04 LDA &0431
23F7 C9 28    CMP #&28
23F9 90 0A    BCC &2405
23FB AD 32 04 LDA &0432
23FE C9 07    CMP #&07
2400 B0 00    BCS &2402
2402 20 48 0C JSR &0C48
2405 AD 2F 04 LDA &042F
2408 85 70    STA &70
240A AD 30 04 LDA &0430
240D 85 71    STA &71
240F AD 31 04 LDA &0431
2412 20 7D 16 JSR &167D
2415 EE 31 04 INC &0431
2418 18       CLC
2419 AD 2F 04 LDA &042F
241C 69 08    ADC #&08
241E 8D 2F 04 STA &042F
2421 AD 30 04 LDA &0430
2424 69 00    ADC #&00
2426 C9 80    CMP #&80
2428 90 03    BCC &242D
242A 38       SEC
242B E9 50    SBC #&50
242D 8D 30 04 STA &0430
2430 20 A0 0B JSR &0BA0
2433 4C 97 15 JMP &1597
2436 AD 28 04 LDA &0428
2439 D0 18    BNE &2453
243B AD 06 04 LDA &0406
243E C9 01    CMP #&01
2440 90 11    BCC &2453
2442 AD 31 04 LDA &0431
2445 C9 C9    CMP #&C9
2447 B0 0A    BCS &2453
2449 AD 32 04 LDA &0432
244C C9 07    CMP #&07
244E B0 00    BCS &2450
2450 20 76 0D JSR &0D76
2453 CE 31 04 DEC &0431
2456 38       SEC
2457 AD 2F 04 LDA &042F
245A E9 08    SBC #&08
245C 8D 2F 04 STA &042F
245F AD 30 04 LDA &0430
2462 E9 00    SBC #&00
2464 C9 30    CMP #&30
2466 B0 03    BCS &246B
2468 18       CLC
2469 69 50    ADC #&50
246B 8D 30 04 STA &0430
246E 20 A0 0B JSR &0BA0
2471 AD 31 04 LDA &0431
2474 18       CLC
2475 69 05    ADC #&05
2477 20 7D 16 JSR &167D
247A 4C 97 15 JMP &1597
247D CD 06 04 CMP &0406
2480 90 3A    BCC &24BC
2482 8D 05 04 STA &0405
2485 AD 06 04 LDA &0406
2488 69 4E    ADC #&4E
248A CD 05 04 CMP &0405
248D 90 2D    BCC &24BC
248F A9 10    LDA #&10
2491 8D 01 04 STA &0401
2494 A5 70    LDA &70
2496 29 07    AND #&07
2498 8D 02 04 STA &0402
249B A9 08    LDA #&08
249D 38       SEC
249E ED 02 04 SBC &0402
24A1 8D 02 04 STA &0402
24A4 A0 00    LDY #&00
24A6 A9 00    LDA #&00
24A8 91 70    STA (&70),Y
24AA CE 02 04 DEC &0402
24AD D0 06    BNE &24B5
24AF 20 19 17 JSR &1719
24B2 4C B7 16 JMP &16B7
24B5 E6 70    INC &70
24B7 CE 01 04 DEC &0401
24BA D0 EA    BNE &24A6
24BC 60       RTS
24BD AD 31 04 LDA &0431
24C0 8D 05 04 STA &0405
24C3 A9 05    LDA #&05
24C5 8D 00 04 STA &0400
24C8 A5 71    LDA &71
24CA 85 77    STA &77
24CC A5 70    LDA &70
24CE 85 76    STA &76
24D0 8D 02 04 STA &0402
24D3 A9 08    LDA #&08
24D5 38       SEC
24D6 ED 02 04 SBC &0402
24D9 8D 02 04 STA &0402
24DC A9 04    LDA #&04
24DE 8D 01 04 STA &0401
24E1 20 26 0C JSR &0C26
24E4 D0 17    BNE &24FD
24E6 A9 00    LDA #&00
24E8 A8       TAY
24E9 91 70    STA (&70),Y
24EB CE 02 04 DEC &0402
24EE D0 06    BNE &24F6
24F0 20 19 17 JSR &1719
24F3 4C F8 16 JMP &16F8
24F6 E6 70    INC &70
24F8 CE 01 04 DEC &0401
24FB D0 E4    BNE &24E1
24FD 18       CLC
24FE A5 76    LDA &76
2500 69 08    ADC #&08
2502 85 70    STA &70
2504 A5 77    LDA &77
2506 69 00    ADC #&00
2508 C9 80    CMP #&80
250A 90 02    BCC &250E
250C E9 50    SBC #&50
250E 85 71    STA &71
2510 EE 05 04 INC &0405
2513 CE 00 04 DEC &0400
2516 D0 B0    BNE &24C8
2518 60       RTS
2519 18       CLC
251A A5 70    LDA &70
251C 69 79    ADC #&79
251E 85 70    STA &70
2520 A5 71    LDA &71
2522 69 02    ADC #&02
2524 C9 80    CMP #&80
2526 90 03    BCC &252B
2528 38       SEC
2529 E9 50    SBC #&50
252B 85 71    STA &71
252D A9 08    LDA #&08
252F 8D 02 04 STA &0402
2532 60       RTS
2533 20 4F 17 JSR &174F
2536 88       DEY
2537 4C 56 17 JMP &1756
253A 20 4F 17 JSR &174F
253D C8       INY
253E 4C 56 17 JMP &1756
2541 20 4F 17 JSR &174F
2544 CA       DEX
2545 4C 56 17 JMP &1756
2548 20 4F 17 JSR &174F
254B E8       INX
254C 4C 56 17 JMP &1756
254F AE 33 04 LDX &0433
2552 AC 32 04 LDY &0432
2555 60       RTS
2556 8E 11 04 STX &0411
2559 8C 12 04 STY &0412
255C 20 93 17 JSR &1793
255F C9 00    CMP #&00
2561 F0 2A    BEQ &258D
2563 AE 2D 04 LDX &042D
2566 E0 05    CPX #&05
2568 F0 20    BEQ &258A
256A AE 28 04 LDX &0428
256D D0 1B    BNE &258A
256F C9 0E    CMP #&0E
2571 F0 6B    BEQ &25DE
2573 C9 0F    CMP #&0F
2575 F0 6D    BEQ &25E4
2577 C9 0D    CMP #&0D
2579 F0 6F    BEQ &25EA
257B C9 07    CMP #&07
257D F0 76    BEQ &25F5
257F C9 09    CMP #&09
2581 F0 0D    BEQ &2590
2583 C9 FF    CMP #&FF
2585 F0 03    BEQ &258A
2587 20 57 18 JSR &1857
258A A9 FF    LDA #&FF
258C 60       RTS
258D A9 00    LDA #&00
258F 60       RTS
2590 4C 29 18 JMP &1829
2593 A9 00    LDA #&00
2595 85 77    STA &77
2597 98       TYA
2598 85 76    STA &76
259A 98       TYA
259B 0A       ASL A
259C 18       CLC
259D 65 76    ADC &76
259F 85 76    STA &76
25A1 A0 04    LDY #&04
25A3 06 76    ASL &76
25A5 26 77    ROL &77
25A7 88       DEY
25A8 D0 F9    BNE &25A3
25AA 18       CLC
25AB 8A       TXA
25AC 65 76    ADC &76
25AE 85 76    STA &76
25B0 A9 00    LDA #&00
25B2 65 77    ADC &77
25B4 85 77    STA &77
25B6 18       CLC
25B7 A5 82    LDA &82
25B9 65 76    ADC &76
25BB 85 76    STA &76
25BD A5 83    LDA &83
25BF 65 77    ADC &77
25C1 85 77    STA &77
25C3 A0 00    LDY #&00
25C5 B1 76    LDA (&76),Y
25C7 60       RTS
25C8 48       PHA
25C9 AD 50 04 LDA &0450
25CC 8D 42 04 STA &0442
25CF A9 03    LDA #&03
25D1 20 62 23 JSR &2362
25D4 68       PLA
25D5 20 57 1B JSR &1B57
25D8 A9 00    LDA #&00
25DA A8       TAY
25DB 91 76    STA (&76),Y
25DD 60       RTS
25DE A9 02    LDA #&02
25E0 20 C8 17 JSR &17C8
25E3 60       RTS
25E4 A9 03    LDA #&03
25E6 20 C8 17 JSR &17C8
25E9 60       RTS
25EA A9 00    LDA #&00
25EC 8D 10 04 STA &0410
25EF A9 05    LDA #&05
25F1 20 C8 17 JSR &17C8
25F4 60       RTS
25F5 AD 10 04 LDA &0410
25F8 D0 90    BNE &258A
25FA A9 08    LDA #&08
25FC 20 D5 17 JSR &17D5
25FF A9 FF    LDA #&FF
2601 8D 10 04 STA &0410
2604 20 5D 23 JSR &235D
2607 20 82 1D JSR &1D82
260A AD 3B 04 LDA &043B
260D 29 03    AND #&03
260F 0A       ASL A
2610 AA       TAX
2611 BD B0 04 LDA &04B0,X
2614 85 76    STA &76
2616 E8       INX
2617 BD B0 04 LDA &04B0,X
261A 85 77    STA &77
261C F0 05    BEQ &2623
261E A2 0D    LDX #&0D
2620 20 18 0F JSR &0F18
2623 AD 57 04 LDA &0457
2626 F0 06    BEQ &262E
2628 60       RTS
2629 AD 57 04 LDA &0457
262C F0 26    BEQ &2654
262E F8       SED
262F 18       CLC
2630 AD 3E 04 LDA &043E
2633 6D 41 04 ADC &0441
2636 8D 3E 04 STA &043E
2639 AD 3F 04 LDA &043F
263C 6D 42 04 ADC &0442
263F 8D 3F 04 STA &043F
2642 AD 40 04 LDA &0440
2645 69 00    ADC #&00
2647 8D 40 04 STA &0440
264A D8       CLD
264B 20 7A 0F JSR &0F7A
264E 20 20 1E JSR &1E20
2651 4C 6B 10 JMP &106B
2654 4C 8A 17 JMP &178A
2657 A9 00    LDA #&00
2659 8D 00 04 STA &0400
265C AD 00 04 LDA &0400
265F 0A       ASL A
2660 A8       TAY
2661 B1 7E    LDA (&7E),Y
2663 C8       INY
2664 CD 33 04 CMP &0433
2667 D0 3F    BNE &26A8
2669 B1 7E    LDA (&7E),Y
266B CD 32 04 CMP &0432
266E D0 38    BNE &26A8
2670 AD 00 04 LDA &0400
2673 0A       ASL A
2674 0A       ASL A
2675 69 08    ADC #&08
2677 48       PHA
2678 A9 00    LDA #&00
267A 20 41 0C JSR &0C41
267D 68       PLA
267E A8       TAY
267F B1 7E    LDA (&7E),Y
2681 C8       INY
2682 8D 2F 04 STA &042F
2685 B1 7E    LDA (&7E),Y
2687 C8       INY
2688 8D 30 04 STA &0430
268B B1 7E    LDA (&7E),Y
268D C8       INY
268E 8D 33 04 STA &0433
2691 B1 7E    LDA (&7E),Y
2693 C8       INY
2694 8D 32 04 STA &0432
2697 AD 33 04 LDA &0433
269A 20 54 12 JSR &1254
269D A9 03    LDA #&03
269F 8D 2D 04 STA &042D
26A2 A9 19    LDA #&19
26A4 8D 2E 04 STA &042E
26A7 60       RTS
26A8 EE 00 04 INC &0400
26AB AD 00 04 LDA &0400
26AE C9 04    CMP #&04
26B0 D0 AA    BNE &265C
26B2 60       RTS
26B3 A2 0A    LDX #&0A
26B5 A0 00    LDY #&00
26B7 20 DF 18 JSR &18DF
26BA F0 22    BEQ &26DE
26BC A2 1A    LDX #&1A
26BE A0 00    LDY #&00
26C0 20 DF 18 JSR &18DF
26C3 F0 19    BEQ &26DE
26C5 A2 90    LDX #&90
26C7 A0 02    LDY #&02
26C9 20 DF 18 JSR &18DF
26CC F0 10    BEQ &26DE
26CE A2 8D    LDX #&8D
26D0 A0 02    LDY #&02
26D2 20 DF 18 JSR &18DF
26D5 F0 07    BEQ &26DE
26D7 A2 9D    LDX #&9D
26D9 A0 02    LDY #&02
26DB 20 DF 18 JSR &18DF
26DE 60       RTS
26DF 18       CLC
26E0 8A       TXA
26E1 6D 2F 04 ADC &042F
26E4 85 70    STA &70
26E6 98       TYA
26E7 6D 30 04 ADC &0430
26EA C9 80    CMP #&80
26EC 90 02    BCC &26F0
26EE E9 50    SBC #&50
26F0 85 71    STA &71
26F2 A0 00    LDY #&00
26F4 B1 70    LDA (&70),Y
26F6 29 55    AND #&55
26F8 C9 50    CMP #&50
26FA F0 3A    BEQ &2736
26FC C9 51    CMP #&51
26FE F0 36    BEQ &2736
2700 C9 54    CMP #&54
2702 F0 6C    BEQ &2770
2704 B1 70    LDA (&70),Y
2706 29 AA    AND #&AA
2708 C9 A0    CMP #&A0
270A F0 2A    BEQ &2736
270C C9 A2    CMP #&A2
270E F0 26    BEQ &2736
2710 C9 A8    CMP #&A8
2712 F0 5C    BEQ &2770
2714 AD 28 04 LDA &0428
2717 D0 10    BNE &2729
2719 B1 70    LDA (&70),Y
271B 29 55    AND #&55
271D C9 55    CMP #&55
271F F0 0E    BEQ &272F
2721 B1 70    LDA (&70),Y
2723 29 AA    AND #&AA
2725 C9 AA    CMP #&AA
2727 F0 06    BEQ &272F
2729 A9 FF    LDA #&FF
272B 8D 4C 04 STA &044C
272E 60       RTS
272F A9 00    LDA #&00
2731 8D 1B 04 STA &041B
2734 F0 F3    BEQ &2729
2736 AD 28 04 LDA &0428
2739 F0 EE    BEQ &2729
273B C9 FF    CMP #&FF
273D F0 EA    BEQ &2729
273F 20 45 19 JSR &1945
2742 A9 00    LDA #&00
2744 60       RTS
2745 A9 02    LDA #&02
2747 8D 46 04 STA &0446
274A A9 07    LDA #&07
274C 8D 2D 04 STA &042D
274F F8       SED
2750 18       CLC
2751 AD 3E 04 LDA &043E
2754 69 50    ADC #&50
2756 8D 3E 04 STA &043E
2759 AD 3F 04 LDA &043F
275C 69 00    ADC #&00
275E 8D 3F 04 STA &043F
2761 AD 40 04 LDA &0440
2764 69 00    ADC #&00
2766 8D 40 04 STA &0440
2769 D8       CLD
276A A9 FF    LDA #&FF
276C 8D 4C 04 STA &044C
276F 60       RTS
2770 20 31 1D JSR &1D31
2773 A9 00    LDA #&00
2775 60       RTS
2776 A9 00    LDA #&00
2778 20 41 0C JSR &0C41
277B A9 04    LDA #&04
277D 8D 2D 04 STA &042D
2780 60       RTS
2781 AD 28 04 LDA &0428
2784 F0 20    BEQ &27A6
2786 AD 2D 04 LDA &042D
2789 C9 01    CMP #&01
278B F0 04    BEQ &2791
278D C9 02    CMP #&02
278F D0 15    BNE &27A6
2791 AD 33 04 LDA &0433
2794 CD 8B 03 CMP &038B
2797 D0 0D    BNE &27A6
2799 AD 32 04 LDA &0432
279C CD 8A 03 CMP &038A
279F D0 05    BNE &27A6
27A1 A9 00    LDA #&00
27A3 8D 1B 04 STA &041B
27A6 60       RTS
27A7 AD 1B 04 LDA &041B
27AA F0 1D    BEQ &27C9
27AC AD 34 04 LDA &0434
27AF C9 FF    CMP #&FF
27B1 F0 16    BEQ &27C9
27B3 AD 2D 04 LDA &042D
27B6 8D 34 04 STA &0434
27B9 AD 2E 04 LDA &042E
27BC 8D 35 04 STA &0435
27BF A9 05    LDA #&05
27C1 8D 2D 04 STA &042D
27C4 A9 06    LDA #&06
27C6 8D 2E 04 STA &042E
27C9 60       RTS
27CA 45 A9    EOR &A9
27CC 01 20    ORA (&20,X)
27CE 41 0C    EOR (&0C,X)
27D0 20 D1 23 JSR &23D1
27D3 60       RTS
27D4 0A       ASL A
27D5 AA       TAX
27D6 98       TYA
27D7 48       PHA
27D8 BD E9 19 LDA &19E9,X
27DB E8       INX
27DC 85 72    STA &72
27DE BD E9 19 LDA &19E9,X
27E1 85 73    STA &73
27E3 20 0F 1A JSR &1A0F
27E6 68       PLA
27E7 A8       TAY
27E8 60       RTS
27E9 47       ???
27EA 2E 55 2E ROL &2E55
27ED 63       ???
27EE 2E 71 2E ROL &2E71
27F1 7F       ???
27F2 2E 8D 2E ROL &2E8D
27F5 9B       ???
27F6 2E A9 2E ROL &2EA9
27F9 B7       ???
27FA 2E C5 2E ROL &2EC5
27FD D3       ???
27FE 2E 51 2F ROL &2F51
2801 E1 2E    SBC (&2E,X)
2803 EF       ???
2804 2E FD 2E ROL &2EFD
2807 0B       ???
2808 2F       ???
2809 27       ???
280A 2F       ???
280B 35 2F    AND &2F,X
280D 43       ???
280E 2F       ???
280F A9 02    LDA #&02
2811 8D 00 04 STA &0400
2814 A0 06    LDY #&06
2816 B1 72    LDA (&72),Y
2818 91 7C    STA (&7C),Y
281A 88       DEY
281B 10 F9    BPL &2816
281D 18       CLC
281E A5 7C    LDA &7C
2820 69 08    ADC #&08
2822 85 7C    STA &7C
2824 A5 7D    LDA &7D
2826 69 00    ADC #&00
2828 85 7D    STA &7D
282A 18       CLC
282B A5 72    LDA &72
282D 69 07    ADC #&07
282F 85 72    STA &72
2831 A5 73    LDA &73
2833 69 00    ADC #&00
2835 85 73    STA &73
2837 CE 00 04 DEC &0400
283A D0 D8    BNE &2814
283C 60       RTS
283D A9 0A    LDA #&0A
283F 4C D4 19 JMP &19D4
2842 18       CLC
2843 AD 03 04 LDA &0403
2846 69 80    ADC #&80
2848 85 7C    STA &7C
284A AD 04 04 LDA &0404
284D 69 02    ADC #&02
284F 85 7D    STA &7D
2851 20 3D 1A JSR &1A3D
2854 20 AD 1A JSR &1AAD
2857 20 D7 1A JSR &1AD7
285A 20 FB 1A JSR &1AFB
285D 20 3D 1A JSR &1A3D
2860 20 85 1A JSR &1A85
2863 A9 FF    LDA #&FF
2865 8D 55 04 STA &0455
2868 AD 59 04 LDA &0459
286B F0 17    BEQ &2884
286D AD 40 04 LDA &0440
2870 C9 01    CMP #&01
2872 90 10    BCC &2884
2874 EE 1A 04 INC &041A
2877 EE 19 04 INC &0419
287A A9 00    LDA #&00
287C 8D 59 04 STA &0459
287F A9 03    LDA #&03
2881 20 62 23 JSR &2362
2884 60       RTS
2885 A9 04    LDA #&04
2887 8D 01 04 STA &0401
288A AD 19 04 LDA &0419
288D F0 15    BEQ &28A4
288F 8D 02 04 STA &0402
2892 A9 0B    LDA #&0B
2894 20 D4 19 JSR &19D4
2897 CE 01 04 DEC &0401
289A CE 02 04 DEC &0402
289D D0 F3    BNE &2892
289F AD 01 04 LDA &0401
28A2 F0 08    BEQ &28AC
28A4 20 3D 1A JSR &1A3D
28A7 CE 01 04 DEC &0401
28AA D0 F8    BNE &28A4
28AC 60       RTS
28AD A0 00    LDY #&00
28AF B9 D2 1A LDA &1AD2,Y
28B2 20 D4 19 JSR &19D4
28B5 C8       INY
28B6 C0 05    CPY #&05
28B8 D0 F5    BNE &28AF
28BA 20 3D 1A JSR &1A3D
28BD AD 40 04 LDA &0440
28C0 20 07 1B JSR &1B07
28C3 AD 3F 04 LDA &043F
28C6 20 07 1B JSR &1B07
28C9 AD 3E 04 LDA &043E
28CC 20 07 1B JSR &1B07
28CF 4C 3D 1A JMP &1A3D
28D2 05 0C    ORA &0C
28D4 00       BRK
28D5 0D 0E A0 ORA &A00E
28D8 00       BRK
28D9 B9 F7 1A LDA &1AF7,Y
28DC 20 D4 19 JSR &19D4
28DF C8       INY
28E0 C0 04    CPY #&04
28E2 D0 F5    BNE &28D9
28E4 20 3D 1A JSR &1A3D
28E7 AD 42 04 LDA &0442
28EA 20 07 1B JSR &1B07
28ED AD 41 04 LDA &0441
28F0 20 07 1B JSR &1B07
28F3 20 3D 1A JSR &1A3D
28F6 60       RTS
28F7 0F       ???
28F8 01 10    ORA (&10,X)
28FA 11 A9    ORA (&A9),Y
28FC 12 20    ORA (&20)
28FE D4       ???
28FF 19 AD 3B ORA &3BAD,Y
2902 04 20    TSB &20
2904 07       ???
2905 1B       ???
2906 60       RTS
2907 48       PHA
2908 4A       LSR A
2909 4A       LSR A
290A 4A       LSR A
290B 4A       LSR A
290C 20 D4 19 JSR &19D4
290F 68       PLA
2910 29 0F    AND #&0F
2912 20 D4 19 JSR &19D4
2915 60       RTS
2916 AD 1B 04 LDA &041B
2919 F0 32    BEQ &294D
291B AD 41 04 LDA &0441
291E D0 0E    BNE &292E
2920 AD 42 04 LDA &0442
2923 D0 09    BNE &292E
2925 8D 41 04 STA &0441
2928 AD 50 04 LDA &0450
292B 8D 42 04 STA &0442
292E F8       SED
292F 38       SEC
2930 AD 41 04 LDA &0441
2933 E9 01    SBC #&01
2935 8D 41 04 STA &0441
2938 AD 42 04 LDA &0442
293B E9 00    SBC #&00
293D 8D 42 04 STA &0442
2940 D0 0B    BNE &294D
2942 AD 41 04 LDA &0441
2945 D0 06    BNE &294D
2947 8D 1B 04 STA &041B
294A 8D 55 04 STA &0455
294D D8       CLD
294E AD 55 04 LDA &0455
2951 D0 03    BNE &2956
2953 20 42 1A JSR &1A42
2956 60       RTS
2957 F8       SED
2958 18       CLC
2959 6D 3F 04 ADC &043F
295C 8D 3F 04 STA &043F
295F AD 40 04 LDA &0440
2962 69 00    ADC #&00
2964 8D 40 04 STA &0440
2967 D8       CLD
2968 60       RTS
2969 AD 2F 04 LDA &042F
296C 48       PHA
296D AD 30 04 LDA &0430
2970 48       PHA
2971 AD 33 04 LDA &0433
2974 48       PHA
2975 AD 31 04 LDA &0431
2978 48       PHA
2979 AD 2A 04 LDA &042A
297C C9 02    CMP #&02
297E 90 06    BCC &2986
2980 F0 59    BEQ &29DB
2982 C9 03    CMP #&03
2984 F0 1B    BEQ &29A1
2986 A9 01    LDA #&01
2988 8D 2E 04 STA &042E
298B A9 FF    LDA #&FF
298D 8D 45 04 STA &0445
2990 68       PLA
2991 8D 31 04 STA &0431
2994 68       PLA
2995 8D 33 04 STA &0433
2998 68       PLA
2999 8D 30 04 STA &0430
299C 68       PLA
299D 8D 2F 04 STA &042F
29A0 60       RTS
29A1 20 41 17 JSR &1741
29A4 D0 E5    BNE &298B
29A6 20 3C 1C JSR &1C3C
29A9 A2 11    LDX #&11
29AB 20 8E 1C JSR &1C8E
29AE 20 41 17 JSR &1741
29B1 D0 0B    BNE &29BE
29B3 20 3C 1C JSR &1C3C
29B6 A2 12    LDX #&12
29B8 20 8E 1C JSR &1C8E
29BB 4C AE 1B JMP &1BAE
29BE 20 3C 1C JSR &1C3C
29C1 20 26 0C JSR &0C26
29C4 D0 C5    BNE &298B
29C6 18       CLC
29C7 AD 06 04 LDA &0406
29CA 6D 35 04 ADC &0435
29CD 38       SEC
29CE E9 05    SBC #&05
29D0 8D 31 04 STA &0431
29D3 A2 12    LDX #&12
29D5 20 8E 1C JSR &1C8E
29D8 4C 8B 1B JMP &1B8B
29DB 20 48 17 JSR &1748
29DE D0 AB    BNE &298B
29E0 20 15 1C JSR &1C15
29E3 A2 10    LDX #&10
29E5 20 8E 1C JSR &1C8E
29E8 20 48 17 JSR &1748
29EB D0 0B    BNE &29F8
29ED 20 15 1C JSR &1C15
29F0 A2 12    LDX #&12
29F2 20 8E 1C JSR &1C8E
29F5 4C E8 1B JMP &1BE8
29F8 20 15 1C JSR &1C15
29FB 20 26 0C JSR &0C26
29FE D0 8B    BNE &298B
2A00 18       CLC
2A01 AD 06 04 LDA &0406
2A04 69 50    ADC #&50
2A06 38       SEC
2A07 ED 35 04 SBC &0435
2A0A 8D 31 04 STA &0431
2A0D A2 12    LDX #&12
2A0F 20 8E 1C JSR &1C8E
2A12 4C 8B 1B JMP &1B8B
2A15 18       CLC
2A16 AD 2F 04 LDA &042F
2A19 69 28    ADC #&28
2A1B 8D 2F 04 STA &042F
2A1E AD 30 04 LDA &0430
2A21 69 00    ADC #&00
2A23 C9 80    CMP #&80
2A25 90 02    BCC &2A29
2A27 E9 50    SBC #&50
2A29 8D 30 04 STA &0430
2A2C EE 33 04 INC &0433
2A2F 18       CLC
2A30 AD 31 04 LDA &0431
2A33 69 05    ADC #&05
2A35 8D 31 04 STA &0431
2A38 8D 05 04 STA &0405
2A3B 60       RTS
2A3C 38       SEC
2A3D AD 2F 04 LDA &042F
2A40 E9 28    SBC #&28
2A42 8D 2F 04 STA &042F
2A45 AD 30 04 LDA &0430
2A48 E9 00    SBC #&00
2A4A C9 30    CMP #&30
2A4C B0 02    BCS &2A50
2A4E 69 50    ADC #&50
2A50 8D 30 04 STA &0430
2A53 CE 33 04 DEC &0433
2A56 38       SEC
2A57 AD 31 04 LDA &0431
2A5A E9 05    SBC #&05
2A5C 8D 31 04 STA &0431
2A5F 8D 05 04 STA &0405
2A62 60       RTS
2A63 20 B3 18 JSR &18B3
2A66 AD 1B 04 LDA &041B
2A69 F0 05    BEQ &2A70
2A6B CE 2E 04 DEC &042E
2A6E D0 15    BNE &2A85
2A70 A9 00    LDA #&00
2A72 8D 45 04 STA &0445
2A75 20 69 1B JSR &1B69
2A78 AD 34 04 LDA &0434
2A7B 8D 2D 04 STA &042D
2A7E AD 35 04 LDA &0435
2A81 8D 2E 04 STA &042E
2A84 60       RTS
2A85 A9 FF    LDA #&FF
2A87 8D 45 04 STA &0445
2A8A 20 69 1B JSR &1B69
2A8D 60       RTS
2A8E AD 45 04 LDA &0445
2A91 F0 01    BEQ &2A94
2A93 8A       TXA
2A94 20 41 0C JSR &0C41
2A97 60       RTS
2A98 AD 46 04 LDA &0446
2A9B F0 2A    BEQ &2AC7
2A9D CE 46 04 DEC &0446
2AA0 F0 15    BEQ &2AB7
2AA2 AD 46 04 LDA &0446
2AA5 C9 01    CMP #&01
2AA7 D0 03    BNE &2AAC
2AA9 20 2A 23 JSR &232A
2AAC 20 1B 1D JSR &1D1B
2AAF F0 05    BEQ &2AB6
2AB1 A9 13    LDA #&13
2AB3 20 F5 1C JSR &1CF5
2AB6 60       RTS
2AB7 A9 00    LDA #&00
2AB9 20 F5 1C JSR &1CF5
2ABC 20 1B 1D JSR &1D1B
2ABF D0 F5    BNE &2AB6
2AC1 A9 00    LDA #&00
2AC3 8D 1B 04 STA &041B
2AC6 60       RTS
2AC7 A9 FF    LDA #&FF
2AC9 20 67 14 JSR &1467
2ACC D0 26    BNE &2AF4
2ACE A9 64    LDA #&64
2AD0 8D 46 04 STA &0446
2AD3 AD 8B 03 LDA &038B
2AD6 8D 47 04 STA &0447
2AD9 AD 8A 03 LDA &038A
2ADC 8D 48 04 STA &0448
2ADF AD 87 03 LDA &0387
2AE2 8D 49 04 STA &0449
2AE5 AD 88 03 LDA &0388
2AE8 8D 4A 04 STA &044A
2AEB AD 89 03 LDA &0389
2AEE 8D 4B 04 STA &044B
2AF1 20 1B 23 JSR &231B
2AF4 60       RTS
2AF5 AE 49 04 LDX &0449
2AF8 8E 2F 04 STX &042F
2AFB AE 4A 04 LDX &044A
2AFE 8E 30 04 STX &0430
2B01 AE 4B 04 LDX &044B
2B04 8E 31 04 STX &0431
2B07 A2 FF    LDX #&FF
2B09 8E 28 04 STX &0428
2B0C C9 00    CMP #&00
2B0E F0 07    BEQ &2B17
2B10 20 B3 18 JSR &18B3
2B13 F0 05    BEQ &2B1A
2B15 A9 13    LDA #&13
2B17 20 41 0C JSR &0C41
2B1A 60       RTS
2B1B AD 47 04 LDA &0447
2B1E CD 8B 03 CMP &038B
2B21 D0 0B    BNE &2B2E
2B23 AD 48 04 LDA &0448
2B26 CD 8A 03 CMP &038A
2B29 D0 03    BNE &2B2E
2B2B A9 00    LDA #&00
2B2D 60       RTS
2B2E A9 FF    LDA #&FF
2B30 60       RTS
2B31 AD 1B 04 LDA &041B
2B34 F0 1F    BEQ &2B55
2B36 AD 2D 04 LDA &042D
2B39 C9 06    CMP #&06
2B3B F0 0E    BEQ &2B4B
2B3D 8D 34 04 STA &0434
2B40 AD 2E 04 LDA &042E
2B43 8D 35 04 STA &0435
2B46 A9 06    LDA #&06
2B48 8D 2D 04 STA &042D
2B4B A9 64    LDA #&64
2B4D 8D 2E 04 STA &042E
2B50 A9 FF    LDA #&FF
2B52 8D 4C 04 STA &044C
2B55 60       RTS
2B56 CE 2E 04 DEC &042E
2B59 F0 1A    BEQ &2B75
2B5B 20 B3 18 JSR &18B3
2B5E F0 10    BEQ &2B70
2B60 EE 29 04 INC &0429
2B63 AD 29 04 LDA &0429
2B66 29 08    AND #&08
2B68 4A       LSR A
2B69 4A       LSR A
2B6A 4A       LSR A
2B6B 69 14    ADC #&14
2B6D 20 41 0C JSR &0C41
2B70 60       RTS
2B71 20 45 19 JSR &1945
2B74 60       RTS
2B75 AD 34 04 LDA &0434
2B78 8D 2D 04 STA &042D
2B7B AD 35 04 LDA &0435
2B7E 8D 2E 04 STA &042E
2B81 60       RTS
2B82 AD 30 04 LDA &0430
2B85 48       PHA
2B86 AD 2F 04 LDA &042F
2B89 48       PHA
2B8A AE 57 04 LDX &0457
2B8D D0 14    BNE &2BA3
2B8F 38       SEC
2B90 E9 28    SBC #&28
2B92 8D 2F 04 STA &042F
2B95 8D 1E 1E STA &1E1E
2B98 AD 30 04 LDA &0430
2B9B E9 00    SBC #&00
2B9D 8D 30 04 STA &0430
2BA0 4C B4 1D JMP &1DB4
2BA3 18       CLC
2BA4 69 28    ADC #&28
2BA6 8D 2F 04 STA &042F
2BA9 8D 1E 1E STA &1E1E
2BAC AD 30 04 LDA &0430
2BAF 69 00    ADC #&00
2BB1 8D 30 04 STA &0430
2BB4 38       SEC
2BB5 E9 05    SBC #&05
2BB7 8D 1F 1E STA &1E1F
2BBA A9 10    LDA #&10
2BBC 8D 1D 1E STA &1E1D
2BBF 20 48 10 JSR &1048
2BC2 C9 0A    CMP #&0A
2BC4 D0 F9    BNE &2BBF
2BC6 A9 00    LDA #&00
2BC8 20 41 0C JSR &0C41
2BCB 20 3C 23 JSR &233C
2BCE AD 2F 04 LDA &042F
2BD1 29 07    AND #&07
2BD3 D0 11    BNE &2BE6
2BD5 38       SEC
2BD6 AD 2F 04 LDA &042F
2BD9 E9 78    SBC #&78
2BDB 8D 2F 04 STA &042F
2BDE AD 30 04 LDA &0430
2BE1 E9 02    SBC #&02
2BE3 8D 30 04 STA &0430
2BE6 CE 2F 04 DEC &042F
2BE9 A9 07    LDA #&07
2BEB 20 41 0C JSR &0C41
2BEE AD 2F 04 LDA &042F
2BF1 48       PHA
2BF2 AD 30 04 LDA &0430
2BF5 48       PHA
2BF6 AD 1E 1E LDA &1E1E
2BF9 8D 2F 04 STA &042F
2BFC AD 1F 1E LDA &1E1F
2BFF 8D 30 04 STA &0430
2C02 A9 03    LDA #&03
2C04 20 41 0C JSR &0C41
2C07 68       PLA
2C08 8D 30 04 STA &0430
2C0B 68       PLA
2C0C 8D 2F 04 STA &042F
2C0F CE 1D 1E DEC &1E1D
2C12 D0 AB    BNE &2BBF
2C14 68       PLA
2C15 8D 2F 04 STA &042F
2C18 68       PLA
2C19 8D 30 04 STA &0430
2C1C 60       RTS
2C1D 00       BRK
2C1E 00       BRK
2C1F 00       BRK
2C20 A9 02    LDA #&02
2C22 20 62 23 JSR &2362
2C25 A9 00    LDA #&00
2C27 8D 58 04 STA &0458
2C2A A9 03    LDA #&03
2C2C 8D 2D 04 STA &042D
2C2F AD 57 04 LDA &0457
2C32 F0 72    BEQ &2CA6
2C34 A9 C0    LDA #&C0
2C36 85 84    STA &84
2C38 85 86    STA &86
2C3A A9 75    LDA #&75
2C3C 85 85    STA &85
2C3E 85 87    STA &87
2C40 A9 78    LDA #&78
2C42 85 89    STA &89
2C44 85 8B    STA &8B
2C46 A9 44    LDA #&44
2C48 85 88    STA &88
2C4A 85 8A    STA &8A
2C4C A9 07    LDA #&07
2C4E 8D 00 04 STA &0400
2C51 20 3C 23 JSR &233C
2C54 A9 13    LDA #&13
2C56 20 F4 FF JSR &FFF4
2C59 20 F4 FF JSR &FFF4
2C5C 20 F4 FF JSR &FFF4
2C5F 20 F4 FF JSR &FFF4
2C62 A6 84    LDX &84
2C64 A4 85    LDY &85
2C66 20 F3 1E JSR &1EF3
2C69 20 07 1F JSR &1F07
2C6C 86 84    STX &84
2C6E 84 85    STY &85
2C70 A6 86    LDX &86
2C72 A4 87    LDY &87
2C74 20 07 1F JSR &1F07
2C77 20 FD 1E JSR &1EFD
2C7A 86 86    STX &86
2C7C 84 87    STY &87
2C7E A6 88    LDX &88
2C80 A4 89    LDY &89
2C82 20 F3 1E JSR &1EF3
2C85 86 88    STX &88
2C87 84 89    STY &89
2C89 20 1C 1F JSR &1F1C
2C8C A6 8A    LDX &8A
2C8E A4 8B    LDY &8B
2C90 20 1C 1F JSR &1F1C
2C93 20 FD 1E JSR &1EFD
2C96 86 8A    STX &8A
2C98 84 8B    STY &8B
2C9A CE 00 04 DEC &0400
2C9D D0 B2    BNE &2C51
2C9F A6 86    LDX &86
2CA1 A4 87    LDY &87
2CA3 20 07 1F JSR &1F07
2CA6 AE 58 04 LDX &0458
2CA9 E0 A1    CPX #&A1
2CAB F0 05    BEQ &2CB2
2CAD A9 02    LDA #&02
2CAF 8D 2D 04 STA &042D
2CB2 A9 64    LDA #&64
2CB4 8D 2E 04 STA &042E
2CB7 A9 FF    LDA #&FF
2CB9 8D 34 04 STA &0434
2CBC A9 13    LDA #&13      ; VSync
2CBE 20 F4 FF JSR &FFF4
2CC1 20 3C 23 JSR &233C
2CC4 20 29 14 JSR &1429
2CC7 AD 2E 04 LDA &042E
2CCA D0 F0    BNE &2CBC
2CCC 20 3C 23 JSR &233C
2CCF AD FE 21 LDA &21FE
2CD2 D0 F8    BNE &2CCC
2CD4 AE 58 04 LDX &0458
2CD7 E0 A1    CPX #&A1
2CD9 D0 0D    BNE &2CE8
2CDB A9 06    LDA #&06
2CDD 20 62 23 JSR &2362
2CE0 20 3C 23 JSR &233C
2CE3 AD FE 21 LDA &21FE
2CE6 D0 F8    BNE &2CE0
2CE8 A9 00    LDA #&00
2CEA 8D 34 04 STA &0434
2CED A9 FF    LDA #&FF
2CEF 8D 1B 04 STA &041B
2CF2 60       RTS
2CF3 18       CLC
2CF4 8A       TXA
2CF5 69 08    ADC #&08
2CF7 AA       TAX
2CF8 98       TYA
2CF9 69 00    ADC #&00
2CFB A8       TAY
2CFC 60       RTS
2CFD 38       SEC
2CFE 8A       TXA
2CFF E9 08    SBC #&08
2D01 AA       TAX
2D02 98       TYA
2D03 E9 00    SBC #&00
2D05 A8       TAY
2D06 60       RTS
2D07 8A       TXA
2D08 48       PHA
2D09 85 70    STA &70
2D0B 98       TYA
2D0C 48       PHA
2D0D 85 71    STA &71
2D0F A9 30    LDA #&30
2D11 8D 01 04 STA &0401
2D14 20 94 16 JSR &1694
2D17 68       PLA
2D18 A8       TAY
2D19 68       PLA
2D1A AA       TAX
2D1B 60       RTS
2D1C 98       TYA
2D1D 48       PHA
2D1E 85 71    STA &71
2D20 8A       TXA
2D21 48       PHA
2D22 85 70    STA &70
2D24 AE 3B 04 LDX &043B
2D27 E0 04    CPX #&04
2D29 D0 39    BNE &2D64
2D2B AE 58 04 LDX &0458
2D2E E0 A1    CPX #&A1
2D30 F0 32    BEQ &2D64
2D32 A2 17    LDX #&17
2D34 8E 01 04 STX &0401
2D37 29 07    AND #&07
2D39 8D 02 04 STA &0402
2D3C A9 08    LDA #&08
2D3E 38       SEC
2D3F ED 02 04 SBC &0402
2D42 8D 02 04 STA &0402
2D45 A0 00    LDY #&00
2D47 AE 58 04 LDX &0458
2D4A EE 58 04 INC &0458
2D4D BD 5F 2F LDA &2F5F,X
2D50 91 70    STA (&70),Y
2D52 CE 02 04 DEC &0402
2D55 D0 06    BNE &2D5D
2D57 20 19 17 JSR &1719
2D5A 4C 5F 1F JMP &1F5F
2D5D E6 70    INC &70
2D5F CE 01 04 DEC &0401
2D62 D0 E3    BNE &2D47
2D64 68       PLA
2D65 AA       TAX
2D66 68       PLA
2D67 A8       TAY
2D68 60       RTS
2D69 20 C3 1F JSR &1FC3     ; Draw the items/scores page (&1F69)
2D6C 20 7C 1F JSR &1F7C
2D6F 90 08    BCC &2D79
2D71 20 5B 20 JSR &205B
2D74 20 7C 1F JSR &1F7C
2D77 B0 F0    BCS &2D69
2D79 4C 68 10 JMP &1068
2D7C A9 81    LDA #&81
2D7E A2 00    LDX #&00
2D80 A0 02    LDY #&02
2D82 20 F4 FF JSR &FFF4     ; Key scan
2D85 60       RTS
2D86 A2 00    LDX #&00      ; Set up the first screen (&1F86)
2D88 BD 9D 1F LDA &1F9D,X
2D8B C9 FF    CMP #&FF
2D8D F0 06    BEQ &2D95
2D8F 20 EE FF JSR &FFEE
2D92 E8       INX
2D93 D0 F3    BNE &2D88
2D95 A2 0F    LDX #&0F
2D97 A0 02    LDY #&02
2D99 20 76 0E JSR &0E76     ; PALCHANGE 15 -> 2
2D9C 60       RTS
2D9D 16       EQUB 22       ; VDU codes &1F9D
2D9E 02       EQUB 02
2D9F 17       EQUB 23
2DA0 01       EQUB 01
2DA1 00       EQUB 00
2DA2 00       EQUB 00
2DA3 00       EQUB 00
2DA4 00       EQUB 00
2DA5 00       EQUB 00
2DA6 00       EQUB 00
2DA7 00       EQUB 00
2DA8 00       EQUB 00
2DA9 1F       EQUB 31
2DAA 03       EQUB 03
2DAB 02       EQUB 02
2DAC 11       EQUB 17
2DAD 03       EQUB 03
2DAE 50       EQUB 80       ; P
2DAF 68       EQUB 104      ; h
2DB0 61       EQUB 97       ; a
2DB1 72       EQUB 114      ; r
2DB2 61       EQUB 97       ; o
2DB3 6F       EQUB 111      ; a
2DB4 68       EQUB 104      ; h
2DB5 27       EQUB 39       ; '
2DB6 73       EQUB 115      ; s
2DB7 20       EQUB 32
2DB8 43       EQUB 67       ; C
2DB9 75       EQUB 117      ; u
2DBA 72       EQUB 114      ; r
2DBB 73       EQUB 115      ; s
2DBC 65       EQUB 101      ; e
2DBD 1F       EQUB 31
2DBE 00       EQUB 00
2DBF 05       EQUB 05
2DC0 11       EQUB 17       ; VDU 17,5
2DC1 05       EQUB 05
2DC2 FF       EQUB 255
2DC3 20 86 1F JSR &1F86     ; Draw score screen (&1FC3)
2DC6 A2 00    LDX #&00
2DC8 8E 13 20 STX &2013
2DCB 8E 06 04 STX &0406
2DCE 8E 31 04 STX &0431
2DD1 AE 13 20 LDX &2013
2DD4 BD 03 20 LDA &2003,X
2DD7 F0 1A    BEQ &2DF3
2DD9 A8       TAY
2DDA E8       INX
2DDB BD 03 20 LDA &2003,X
2DDE 8D 2F 04 STA &042F
2DE1 E8       INX
2DE2 BD 03 20 LDA &2003,X
2DE5 8D 30 04 STA &0430
2DE8 E8       INX
2DE9 8E 13 20 STX &2013
2DEC 98       TYA
2DED 20 41 0C JSR &0C41
2DF0 4C D1 1F JMP &1FD1
2DF3 A2 00    LDX #&00
2DF5 BD 14 20 LDA &2014,X
2DF8 C9 FF    CMP #&FF
2DFA F0 06    BEQ &2E02
2DFC 20 EE FF JSR &FFEE
2DFF E8       INX
2E00 D0 F3    BNE &2DF5
2E02 60       RTS
2E03 02       ???
2E04 EB       ???
2E05 41 0E    EOR (&0E,X)
2E07 EB       ???
2E08 4B       ???
2E09 0F       ???
2E0A EB       ???
2E0B 55 0D    EOR &0D,X
2E0D EB       ???
2E0E 5F       ???
2E0F 07       ???
2E10 EB       ???
2E11 69 00    ADC #&00
2E13 00       BRK
2E14 1F       EQUB 31       ; VDU codes (&2014)
2E15 06       EQUB 06
2E16 08       EQUB 08
2E17 53       EQUB 83       ; S
2E18 4E       EQUB 78       ; N
2E19 41       EQUB 65       ; A
2E1A 4B       EQUB 75       ; K
2E1B 45       EQUB 69       ; E
2E1C 20       EQUB 32
2E1D 20       EQUB 32
2E1E 20       EQUB 32       ; 4 spaces
2E1F 20       EQUB 32
2E20 35       EQUB 53       ; 5
2E21 30       EQUB 48       ; 0
2E22 1F       EQUB 31
2E23 06       EQUB 06
2E24 0C       EQUB 12
2E25 52       EQUB 82       ; R
2E26 49       EQUB 73       ; I
2E27 4E       EQUB 78       ; N
2E28 47       EQUB 71       ; G
2E29 20       EQUB 32
2E2A 20       EQUB 32
2E2B 20       EQUB 32
2E2C 20       EQUB 32
2E2D 32       EQUB 50       ; 2
2E2E 30       EQUB 48       ; 0
2E2F 30       EQUB 48       ; 0
2E30 1F       EQUB 31
2E31 06       EQUB 06
2E32 10       EQUB 16
2E33 47       EQUB 71       ; G
2E34 4F       EQUB 79       ; O
2E35 42       EQUB 66       ; B
2E36 4C       EQUB 76       ; L
2E37 45       EQUB 69       ; E
2E38 54       EQUB 84       ; T
2E39 20       EQUB 32
2E3A 20       EQUB 32
2E3B 33       EQUB 51       ; 3
2E3C 30       EQUB 48       ; 0
2E3D 30       EQUB 48       ; 0
2E3E 1F       EQUB 31
2E3F 06       EQUB 06
2E40 14       EQUB 20
2E41 4B       EQUB 75       ; K
2E42 45       EQUB 69       ; E
2E43 59       EQUB 89       ; Y
2E44 20       EQUB 32
2E45 20       EQUB 32
2E46 20       EQUB 32
2E47 20       EQUB 32
2E48 20       EQUB 32
2E49 35       EQUB 53       ; 5
2E4A 30       EQUB 48       ; 0
2E4B 30       EQUB 48       ; 0
2E4C 1F       EQUB 31
2E4D 06       EQUB 06
2E4E 18       EQUB 24
2E4F 4C       EQUB 76       ; L
2E50 4F       EQUB 79       ; O
2E51 43       EQUB 67       ; C
2E52 4B       EQUB 75       ; K
2E53 20       EQUB 32
2E54 20       EQUB 32
2E55 20       EQUB 32
2E56 20       EQUB 32
2E57 38       EQUB 56       ; 8
2E58 30       EQUB 48       ; 0
2E59 30       EQUB 48       ; 0
2E5A FF       EQUB 255
2E5B 20 86 1F JSR &1F86
2E5E A9 00    LDA #&00
2E60 8D 00 04 STA &0400
2E63 A9 05    LDA #&05
2E65 8D 01 04 STA &0401
2E68 20 E7 FF JSR &FFE7
2E6B 20 E7 FF JSR &FFE7
2E6E 20 E7 FF JSR &FFE7
2E71 20 86 20 JSR &2086
2E74 20 C2 20 JSR &20C2
2E77 18       CLC
2E78 AD 00 04 LDA &0400
2E7B 69 0E    ADC #&0E
2E7D 8D 00 04 STA &0400
2E80 CE 01 04 DEC &0401
2E83 D0 E3    BNE &2E68
2E85 60       RTS
2E86 A2 05    LDX #&05
2E88 20 D6 20 JSR &20D6
2E8B AE 00 04 LDX &0400
2E8E BD B4 07 LDA &07B4,X
2E91 20 AD 20 JSR &20AD
2E94 BD B3 07 LDA &07B3,X
2E97 20 AD 20 JSR &20AD
2E9A BD B2 07 LDA &07B2,X
2E9D 20 AD 20 JSR &20AD
2EA0 20 E0 20 JSR &20E0
2EA3 BD B5 07 LDA &07B5,X
2EA6 20 AD 20 JSR &20AD
2EA9 20 E0 20 JSR &20E0
2EAC 60       RTS
2EAD 48       PHA
2EAE 4A       LSR A
2EAF 4A       LSR A
2EB0 4A       LSR A
2EB1 4A       LSR A
2EB2 18       CLC
2EB3 69 30    ADC #&30
2EB5 20 EE FF JSR &FFEE
2EB8 68       PLA
2EB9 29 0F    AND #&0F
2EBB 18       CLC
2EBC 69 30    ADC #&30
2EBE 20 EE FF JSR &FFEE
2EC1 60       RTS
2EC2 A2 06    LDX #&06
2EC4 20 D6 20 JSR &20D6
2EC7 AE 00 04 LDX &0400
2ECA BD B6 07 LDA &07B6,X
2ECD E8       INX
2ECE 20 E3 FF JSR &FFE3
2ED1 C9 0D    CMP #&0D
2ED3 D0 F5    BNE &2ECA
2ED5 60       RTS
2ED6 A9 11    LDA #&11
2ED8 20 EE FF JSR &FFEE
2EDB 8A       TXA
2EDC 20 EE FF JSR &FFEE
2EDF 60       RTS
2EE0 A9 20    LDA #&20
2EE2 20 EE FF JSR &FFEE
2EE5 60       RTS
2EE6 A9 00    LDA #&00
2EE8 8D 00 04 STA &0400
2EEB A9 05    LDA #&05
2EED 8D 01 04 STA &0401
2EF0 20 04 21 JSR &2104
2EF3 F0 2A    BEQ &2F1F
2EF5 A9 0E    LDA #&0E
2EF7 18       CLC
2EF8 6D 00 04 ADC &0400
2EFB 8D 00 04 STA &0400
2EFE CE 01 04 DEC &0401
2F01 D0 ED    BNE &2EF0
2F03 60       RTS
2F04 A0 02    LDY #&02
2F06 AE 00 04 LDX &0400
2F09 E8       INX
2F0A E8       INX
2F0B BD B2 07 LDA &07B2,X
2F0E D9 3E 04 CMP &043E,Y
2F11 90 09    BCC &2F1C
2F13 D0 04    BNE &2F19
2F15 CA       DEX
2F16 88       DEY
2F17 10 F2    BPL &2F0B
2F19 A9 FF    LDA #&FF
2F1B 60       RTS
2F1C A0 00    LDY #&00
2F1E 60       RTS
2F1F CE 01 04 DEC &0401
2F22 F0 13    BEQ &2F37
2F24 A2 37    LDX #&37
2F26 A0 0E    LDY #&0E
2F28 BD B2 07 LDA &07B2,X
2F2B 9D C0 07 STA &07C0,X
2F2E CA       DEX
2F2F 88       DEY
2F30 D0 F6    BNE &2F28
2F32 CE 01 04 DEC &0401
2F35 D0 EF    BNE &2F26
2F37 AE 00 04 LDX &0400
2F3A B9 3E 04 LDA &043E,Y
2F3D 9D B2 07 STA &07B2,X
2F40 E8       INX
2F41 C8       INY
2F42 C0 03    CPY #&03
2F44 D0 F4    BNE &2F3A
2F46 AD 3B 04 LDA &043B
2F49 9D B2 07 STA &07B2,X
2F4C 8E 00 04 STX &0400
2F4F 20 55 21 JSR &2155
2F52 4C 71 1F JMP &1F71
2F55 20 86 1F JSR &1F86
2F58 A2 00    LDX #&00
2F5A BD 86 21 LDA &2186,X
2F5D C9 FF    CMP #&FF
2F5F F0 06    BEQ &2F67
2F61 20 EE FF JSR &FFEE
2F64 E8       INX
2F65 D0 F3    BNE &2F5A
2F67 A9 B2    LDA #&B2
2F69 38       SEC
2F6A 6D 00 04 ADC &0400
2F6D 8D 81 21 STA &2181
2F70 A9 07    LDA #&07
2F72 69 00    ADC #&00
2F74 8D 82 21 STA &2182
2F77 A2 81    LDX #&81
2F79 A0 21    LDY #&21
2F7B A9 00    LDA #&00
2F7D 20 F1 FF JSR &FFF1
2F80 60       RTS
2F81 00       BRK
2F82 00       BRK
2F83 09 20    ORA #&20
2F85 7E       ???
2F86 1F       EQUB 31       ; &2186
2F87 03       EQUB 03
2F88 08       EQUB 08
2F89 43       EQUB 67
2F8A 4F       EQUB 79
2F8B 4E       EQUB 78
2F8C 47       EQUB 71
2F8D 52       EQUB 82
2F8E 41       EQUB 65
2F8F 54       EQUB 84
2F90 55       EQUB 85
2F91 4C       EQUB 76
2F92 41       EQUB 65
2F93 54       EQUB 84
2F94 49       EQUB 73
2F95 4F       EQUB 79
2F96 4E       EQUB 78
2F97 53       EQUB 83
2F98 1F       EQUB 31
2F99 03       EQUB 03
2F9A 0C       EQUB 12
2F9B 45       EQUB 69
2F9C 4E       EQUB 78
2F9D 54       EQUB 84
2F9E 45       EQUB 69
2F9F 52       EQUB 82
2FA0 20       EQUB 32
2FA1 59       EQUB 89
2FA2 4F       EQUB 79
2FA3 55       EQUB 85
2FA4 52       EQUB 82
2FA5 20       EQUB 32
2FA6 4E       EQUB 78
2FA7 41       EQUB 65
2FA8 4D       EQUB 77
2FA9 45       EQUB 69
2FAA 1F       EQUB 31
2FAB 03       EQUB 03
2FAC 10       EQUB 16
2FAD 3F       EQUB 63
2FAE 11       EQUB 17
2FAF 06       EQUB 06
2FB0 FF       EQUB 255
2FB1 5F       ???
2FB2 70 72    BVS &3026
2FB4 6F       ???
2FB5 63       ???
2FB6 65 73    ADC &73
2FB8 73       ???
2FB9 5F       ???
2FBA 63       ???
2FBB 6F       ???
2FBC 75 6E    ADC &6E,X
2FBE 74 3A    STZ &3A,X
2FC0 42       ???
2FC1 4E 45 20 LSR &2045
2FC4 8D F5 21 STA &21F5
2FC7 8E F9 21 STX &21F9
2FCA 8C FB 21 STY &21FB
2FCD AD 01 22 LDA &2201
2FD0 8D F7 21 STA &21F7
2FD3 AD 02 22 LDA &2202
2FD6 8D F8 21 STA &21F8
2FD9 E0 FF    CPX #&FF
2FDB D0 07    BNE &2FE4
2FDD E8       INX
2FDE 8E F7 21 STX &21F7
2FE1 8E F8 21 STX &21F8
2FE4 A2 F5    LDX #&F5
2FE6 A0 21    LDY #&21
2FE8 20 2E 23 JSR &232E
2FEB AD F5 21 LDA &21F5
2FEE AE F9 21 LDX &21F9
2FF1 AC FB 21 LDY &21FB
2FF4 60       RTS
2FF5 00       BRK
2FF6 00       BRK
2FF7 F1 FF    SBC (&FF),Y
2FF9 00       BRK
2FFA 00       BRK
2FFB 00       BRK
2FFC 00       BRK
2FFD 00       BRK
2FFE 00       BRK
2FFF 00       BRK
3000 30 F1    BMI &2FF3
3002 FF       ???
3003 AC FD 21 LDY &21FD
3006 B1 7A    LDA (&7A),Y
3008 F0 10    BEQ &301A
300A AA       TAX
300B EE FD 21 INC &21FD
300E AC FD 21 LDY &21FD
3011 B1 7A    LDA (&7A),Y
3013 A8       TAY
3014 EE FD 21 INC &21FD
3017 A9 00    LDA #&00
3019 60       RTS
301A A9 FF    LDA #&FF
301C 60       RTS
301D 29 05    AND #&05
301F 31 05    AND (&05),Y
3021 35 05    AND &05,X
3023 3D 05 35 AND &3505,X
3026 05 31    ORA &31
3028 05 29    ORA &29
302A 05 21    ORA &21
302C 05 29    ORA &29
302E 02       ???
302F 31 02    AND (&02),Y
3031 29 02    AND #&02
3033 21 02    AND (&02,X)
3035 29 02    AND #&02
3037 31 02    AND (&02),Y
3039 29 02    AND #&02
303B 21 02    AND (&02,X)
303D 29 0F    AND #&0F
303F 00       BRK
3040 29 02    AND #&02
3042 FF       ???
3043 00       BRK
3044 29 06    AND #&06
3046 35 05    AND &05,X
3048 3D 06 FF AND &FF06,X
304B 01 3D    ORA (&3D,X)
304D 02       ???
304E FF       ???
304F 00       BRK
3050 3D 06 35 AND &3506,X
3053 05 29    ORA &29
3055 05 FF    ORA &FF
3057 03       ???
3058 29 02    AND #&02
305A FF       ???
305B 00       BRK
305C 29 06    AND #&06
305E 35 05    AND &05,X
3060 3D 05 49 AND &4905,X
3063 05 3D    ORA &3D
3065 05 35    ORA &35
3067 05 29    ORA &29
3069 05 FF    ORA &FF
306B 03       ???
306C 00       BRK
306D 29 02    AND #&02
306F FF       ???
3070 00       BRK
3071 29 06    AND #&06
3073 25 05    AND &05
3075 21 06    AND (&06,X)
3077 FF       ???
3078 03       ???
3079 2D 02 FF AND &FF02
307C 00       BRK
307D 2D 06 35 AND &3506
3080 05 29    ORA &29
3082 05 FF    ORA &FF
3084 03       ???
3085 00       BRK
3086 15 08    ORA &08,X
3088 FF       ???
3089 00       BRK
308A 15 04    ORA &04,X
308C FF       ???
308D 00       BRK
308E 09 04    ORA #&04
3090 01 04    ORA (&04,X)
3092 15 04    ORA &04,X
3094 FF       ???
3095 00       BRK
3096 15 05    ORA &05,X
3098 FF       ???
3099 03       ???
309A 21 08    AND (&08,X)
309C FF       ???
309D 00       BRK
309E 21 04    AND (&04,X)
30A0 FF       ???
30A1 00       BRK
30A2 15 04    ORA &04,X
30A4 0D 04 21 ORA &2104
30A7 04 FF    TSB &FF
30A9 00       BRK
30AA 21 05    AND (&05,X)
30AC FF       ???
30AD 03       ???
30AE 35 08    AND &08,X
30B0 FF       ???
30B1 00       BRK
30B2 35 04    AND &04,X
30B4 29 04    AND #&04
30B6 21 04    AND (&04,X)
30B8 35 04    AND &04,X
30BA FF       ???
30BB 00       BRK
30BC 35 04    AND &04,X
30BE 21 04    AND (&04,X)
30C0 29 08    AND #&08
30C2 FF       ???
30C3 00       BRK
30C4 29 04    AND #&04
30C6 35 04    AND &04,X
30C8 39 04 31 AND &3104,Y
30CB 04 29    TSB &29
30CD 04 21    TSB &21
30CF 04 00    TSB &00
30D1 21 09    AND (&09,X)
30D3 1D 09 15 ORA &1509,X
30D6 08       PHP
30D7 FF       ???
30D8 01 15    ORA (&15,X)
30DA 05 1D    ORA &1D
30DC 05 21    ORA &21
30DE 04 31    TSB &31
30E0 05 1D    ORA &1D
30E2 05 21    ORA &21
30E4 05 15    ORA &15
30E6 09 00    ORA #&00
30E8 19 02 29 ORA &2902,Y
30EB 02       ???
30EC 35 02    AND &02,X
30EE 21 02    AND (&02,X)
30F0 31 02    AND (&02),Y
30F2 3D 02 35 AND &3502,X
30F5 07       ???
30F6 00       BRK
30F7 81 05    STA (&05,X)
30F9 85 05    STA &05
30FB 91 05    STA (&05),Y
30FD 95 05    STA &05,X
30FF 91 02    STA (&02),Y
3101 95 02    STA &02,X
3103 91 02    STA (&02),Y
3105 85 06    STA &06
3107 81 0E    STA (&0E,X)
3109 00       BRK
310A A9 80    LDA #&80
310C A0 FF    LDY #&FF
310E 20 F4 FF JSR &FFF4
3111 E0 0A    CPX #&0A
3113 90 03    BCC &3118
3115 A9 FF    LDA #&FF
3117 60       RTS
3118 A9 00    LDA #&00
311A 60       RTS
311B A2 22    LDX #&22
311D A0 23    LDY #&23
311F 4C 2E 23 JMP &232E
3122 10 00    BPL &3124
3124 FB       ???
3125 FF       ???
3126 04 00    TSB &00
3128 FF       ???
3129 FF       ???
312A A2 34    LDX #&34
312C A0 23    LDY #&23
312E A9 07    LDA #&07
3130 20 F1 FF JSR &FFF1
3133 60       RTS
3134 10 00    BPL &3136
3136 03       ???
3137 00       BRK
3138 04 00    TSB &00
313A 32 00    AND (&00)
313C A2 F8    LDX #&F8
313E 20 0A 23 JSR &230A
3141 F0 19    BEQ &315C
3143 20 03 22 JSR &2203
3146 D0 18    BNE &3160
3148 E0 FF    CPX #&FF
314A F0 06    BEQ &3152
314C 18       CLC
314D 8A       TXA
314E 6D 00 22 ADC &2200
3151 AA       TAX
3152 A9 02    LDA #&02
3154 20 C4 21 JSR &21C4
3157 A9 03    LDA #&03
3159 20 C4 21 JSR &21C4
315C 60       RTS
315D 20 77 23 JSR &2377
3160 A9 00    LDA #&00
3162 EE FF 21 INC &21FF
3165 A2 F1    LDX #&F1
3167 8E 01 22 STX &2201
316A 8D FE 21 STA &21FE
316D C9 02    CMP #&02
316F 90 21    BCC &3192
3171 20 77 23 JSR &2377
3174 4C AE 23 JMP &23AE
3177 A2 FF    LDX #&FF
3179 8E FF 21 STX &21FF
317C 48       PHA
317D A9 15    LDA #&15
317F A2 07    LDX #&07
3181 20 F4 FF JSR &FFF4     ; *FX 21,7 (Empty sound channel 3)
3184 CA       DEX
3185 20 F4 FF JSR &FFF4     ; *FX 21,6 (Empty sound channel 2)
3188 68       PLA
3189 60       RTS
318A 03       EQUB 03
318B 00       EQUB 00
318C 00       EQUB 00
318D 00       EQUB 00
318E 96       EQUB 150
318F 00       EQUB 00
3190 02       EQUB 02
3191 00       EQUB 00
3192 AE       EQUB 174
3193 FF       EQUB 255
3194 21       EQUB 33
3195 D0       EQUB 208
3196 09       EQUB 09
3197 A2       EQUB 162
3198 8A       EQUB 138
3199 A0       EQUB 160
319A 23       EQUB 35
319B 20       EQUB 32
319C 2E       EQUB 46
319D 23       EQUB 35
319E A2       EQUB 162
319F 00       EQUB 00
31A0 AC       EQUB 172
31A1 10       EQUB 16
31A2 04       EQUB 04
31A3 F0       EQUB 240
31A4 23       EQUB 35
31A5 8A       EQUB 138
31A6 4A       EQUB 74
31A7 29       EQUB 41
31A8 01       EQUB 01
31A9 A2       EQUB 162
31AA F6       EQUB 246
31AB 8E       EQUB 142
31AC 01       EQUB 01
31AD 22       EQUB 34
31AE A8       EQUB 168
31AF 0A       EQUB 10
31B0 AA       EQUB 170
31B1 BD       EQUB 189
31B2 DF       EQUB 223
31B3 23       EQUB 35
31B4 E8       EQUB 232
31B5 85       EQUB 133
31B6 7A       EQUB 122
31B7 BD       EQUB 189
31B8 DF       EQUB 223
31B9 23       EQUB 35
31BA 85       EQUB 133
31BB 7B       EQUB 123
31BC B9       EQUB 185
31BD ED       EQUB 237
31BE 23       EQUB 35
31BF 8D       EQUB 141
31C0 00       EQUB 00
31C1 22       EQUB 34
31C2 A9       EQUB 169
31C3 00       EQUB 00
31C4 8D       EQUB 141
31C5 FD       EQUB 253
31C6 21       EQUB 33
31C7 60       EQUB 96
31C8 A9       EQUB 169
31C9 FE       EQUB 254
31CA 8D       EQUB 141
31CB FF       EQUB 255
31CC 21       EQUB 33
31CD A9       EQUB 169
31CE 05       EQUB 05
31CF D0       EQUB 208
31D0 D8       EQUB 216
31D1 A9       EQUB 169
31D2 04       EQUB 04
31D3 20       EQUB 32
31D4 62       EQUB 98
31D5 23       EQUB 35
31D6 20       EQUB 32
31D7 3C       EQUB 60
31D8 23       EQUB 35
31D9 AD       EQUB 173
31DA FE       EQUB 254
31DB 21       EQUB 33
31DC D0       EQUB 208
31DD F8       EQUB 248
31DE 60       EQUB 96
31DF 40       EQUB 64
31E0 22       EQUB 34
31E1 6D       EQUB 109
31E2 22       EQUB 34
31E3 1D       EQUB 29
31E4 22       EQUB 34
31E5 E8       EQUB 232
31E6 22       EQUB 34
31E7 F7       EQUB 247
31E8 22       EQUB 34
31E9 86       EQUB 134
31EA 22       EQUB 34
31EB D1       EQUB 209
31EC 22       EQUB 34
31ED 30       EQUB 48
31EE 30       EQUB 48
31EF 00       EQUB 00
31F0 30       EQUB 48
31F1 00       EQUB 00
31F2 30       EQUB 48
31F3 30       EQUB 48
31F4 00       EQUB 00
31F5 00       EQUB 00
31F6 00       EQUB 00
31F7 03       EQUB 03
31F8 03       EQUB 03
31F9 03       EQUB 03
31FA 03       EQUB 03
31FB 03       EQUB 03
31FC 03       EQUB 03
31FD 03       EQUB 03
31FE 33       EQUB 51
31FF 00       EQUB 00
3200 11       EQUB 17
3201 11       EQUB 17
3202 00       EQUB 00
3203 11       EQUB 17
3204 11       EQUB 17
3205 00       EQUB 00
3206 00       EQUB 00
3207 03       EQUB 03
3208 03       EQUB 03
3209 03       EQUB 03
320A 03       EQUB 03
320B 03       EQUB 03
320C 03       EQUB 03
320D 03       EQUB 03
320E 33       EQUB 51
320F 00       EQUB 00
3210 03       EQUB 03
3211 03       EQUB 03
3212 00       EQUB 00
3213 03       EQUB 03
3214 03       EQUB 03
3215 33       EQUB 51
3216 00       EQUB 00
3217 11       EQUB 17
3218 11       EQUB 17
3219 11       EQUB 17
321A 11       EQUB 17
321B 11       EQUB 17
321C 11       EQUB 17
321D 11       EQUB 17
321E 00       EQUB 00
321F 00       EQUB 00
3220 03       EQUB 03
3221 03       EQUB 03
3222 03       EQUB 03
3223 00       EQUB 00
3224 03       EQUB 03
3225 33       EQUB 51
3226 00       EQUB 00
3227 03       EQUB 03
3228 03       EQUB 03
3229 02       EQUB 02
322A 02       EQUB 02
322B 01       EQUB 01
322C 03       EQUB 03
322D 03       EQUB 03
322E 33       EQUB 51
322F 00       EQUB 00
3230 03       EQUB 03
3231 03       EQUB 03
3232 03       EQUB 03
3233 03       EQUB 03
3234 03       EQUB 03
3235 33       EQUB 51
3236 00       EQUB 00
3237 03       EQUB 03
3238 03       EQUB 03
3239 03       EQUB 03
323A 03       EQUB 03
323B 03       EQUB 03
323C 03       EQUB 03
323D 03       EQUB 03
323E 33       EQUB 51
323F 00       EQUB 00
3240 03       EQUB 03
3241 03       EQUB 03
3242 03       EQUB 03
3243 03       EQUB 03
3244 03       EQUB 03
3245 33       EQUB 51
3246 00       EQUB 00
3247 04       EQUB 04
3248 0C       EQUB 12
3249 00       EQUB 00
324A 00       EQUB 00
324B 00       EQUB 00
324C 00       EQUB 00
324D 00       EQUB 00
324E 00       EQUB 00
324F 00       EQUB 00
3250 00       EQUB 00
3251 00       EQUB 00
3252 0F       EQUB 15
3253 05       EQUB 05
3254 0F       EQUB 15
3255 00       EQUB 00
3256 00       EQUB 00
3257 0C       EQUB 12
3258 00       EQUB 00
3259 04       EQUB 04
325A 0C       EQUB 12
325B 0C       EQUB 12
325C 0C       EQUB 12
325D 00       EQUB 00
325E 0C       EQUB 12
325F 00       EQUB 00
3260 00       EQUB 00
3261 0F       EQUB 15
3262 0F       EQUB 15
3263 0F       EQUB 15
3264 0F       EQUB 15
3265 0F       EQUB 15
3266 00       EQUB 00
3267 08       EQUB 08
3268 0C       EQUB 12
3269 08       EQUB 08
326A 00       EQUB 00
326B 00       EQUB 00
326C 14       EQUB 20
326D 00       EQUB 00
326E 00       EQUB 00
326F 14       EQUB 20
3270 00       EQUB 00
3271 00       EQUB 00
3272 0F       EQUB 15
3273 0A       EQUB 10
3274 0F       EQUB 15
3275 00       EQUB 00
3276 00       EQUB 00
3277 00       EQUB 00
3278 00       EQUB 00
3279 00       EQUB 00
327A 00       EQUB 00
327B 28       EQUB 40
327C 3C       EQUB 60
327D 28       EQUB 40
327E 28       EQUB 40
327F 3C       EQUB 60
3280 28       EQUB 40
3281 00       EQUB 00
3282 11       EQUB 17
3283 11       EQUB 17
3284 11       EQUB 17
3285 00       EQUB 00
3286 11       EQUB 17
3287 00       EQUB 00
3288 00       EQUB 00
3289 00       EQUB 00
328A 00       EQUB 00
328B 28       EQUB 40
328C 3C       EQUB 60
328D 28       EQUB 40
328E 28       EQUB 40
328F 3C       EQUB 60
3290 28       EQUB 40
3291 00       EQUB 00
3292 22       EQUB 34
3293 22       EQUB 34
3294 22       EQUB 34
3295 00       EQUB 00
3296 22       EQUB 34
3297 00       EQUB 00
3298 00       EQUB 00
3299 33       EQUB 51
329A 33       EQUB 51
329B 00       EQUB 00
329C 00       EQUB 00
329D 11       EQUB 17
329E 22       EQUB 34
329F 00       EQUB 00
32A0 00       EQUB 00
32A1 00       EQUB 00
32A2 00       EQUB 00
32A3 00       EQUB 00
32A4 00       EQUB 00
32A5 00       EQUB 00
32A6 00       EQUB 00
32A7 00       EQUB 00
32A8 00       EQUB 00
32A9 00       EQUB 00
32AA 00       EQUB 00
32AB 11       EQUB 17
32AC 22       EQUB 34
32AD 00       EQUB 00
32AE 00       EQUB 00
32AF 33       EQUB 51
32B0 33       EQUB 51
32B1 00       EQUB 00
32B2 00       EQUB 00
32B3 00       EQUB 00
32B4 00       EQUB 00
32B5 00       EQUB 00
32B6 00       EQUB 00
32B7 00       EQUB 00
32B8 00       EQUB 00
32B9 05       EQUB 05
32BA 05       EQUB 05
32BB 00       EQUB 00
32BC 00       EQUB 00
32BD 05       EQUB 05
32BE 00       EQUB 00
32BF 00       EQUB 00
32C0 00       EQUB 00
32C1 14       EQUB 20
32C2 3C       EQUB 60
32C3 14       EQUB 20
32C4 14       EQUB 20
32C5 3C       EQUB 60
32C6 14       EQUB 20
32C7 05       EQUB 05
32C8 0F       EQUB 15
32C9 05       EQUB 05
32CA 05       EQUB 05
32CB 0F       EQUB 15
32CC 05       EQUB 05
32CD 05       EQUB 05
32CE 0F       EQUB 15
32CF 05       EQUB 05
32D0 00       EQUB 00
32D1 14       EQUB 20
32D2 3C       EQUB 60
32D3 14       EQUB 20
32D4 14       EQUB 20
32D5 3C       EQUB 60
32D6 14       EQUB 20
32D7 00       EQUB 00
32D8 0A       EQUB 10
32D9 05       EQUB 05
32DA 00       EQUB 00
32DB 0A       EQUB 10
32DC 05       EQUB 05
32DD 05       EQUB 05
32DE 0A       EQUB 10
32DF 00       EQUB 00
32E0 00       EQUB 00
32E1 00       EQUB 00
32E2 28       EQUB 40
32E3 00       EQUB 00
32E4 00       EQUB 00
32E5 28       EQUB 40
32E6 00       EQUB 00
32E7 00       EQUB 00
32E8 00       EQUB 00
32E9 00       EQUB 00
32EA 00       EQUB 00
32EB 01       EQUB 01
32EC 01       EQUB 01
32ED 05       EQUB 05
32EE 00       EQUB 00
32EF 00       EQUB 00
32F0 00       EQUB 00
32F1 00       EQUB 00
32F2 00       EQUB 00
32F3 00       EQUB 00
32F4 00       EQUB 00
32F5 00       EQUB 00
32F6 00       EQUB 00
32F7 00       EQUB 00
32F8 00       EQUB 00
32F9 01       EQUB 01
32FA 03       EQUB 03
32FB 03       EQUB 03
32FC 03       EQUB 03
32FD 03       EQUB 03
32FE 0B       EQUB 11
32FF 00       EQUB 00
3300 05       EQUB 05
3301 0A       EQUB 10
3302 0A       EQUB 10
3303 05       EQUB 05
3304 00       EQUB 00
3305 00       EQUB 00
3306 00       EQUB 00
3307 00       EQUB 00
3308 00       EQUB 00
3309 03       EQUB 03
330A 17       EQUB 23
330B 03       EQUB 03
330C 03       EQUB 03
330D 03       EQUB 03
330E 03       EQUB 03
330F 0F       EQUB 15
3310 00       EQUB 00
3311 00       EQUB 00
3312 00       EQUB 00
3313 00       EQUB 00
3314 0F       EQUB 15
3315 00       EQUB 00
3316 00       EQUB 00
3317 00       EQUB 00
3318 00       EQUB 00
3319 02       EQUB 02
331A 2B       EQUB 43
331B 3F       EQUB 63
331C 03       EQUB 03
331D 03       EQUB 03
331E 07       EQUB 07
331F 0A       EQUB 10
3320 0A       EQUB 10
3321 05       EQUB 05
3322 05       EQUB 05
3323 0A       EQUB 10
3324 00       EQUB 00
3325 00       EQUB 00
3326 00       EQUB 00
3327 00       EQUB 00
3328 00       EQUB 00
3329 00       EQUB 00
332A 00       EQUB 00
332B 02       EQUB 02
332C 02       EQUB 02
332D 0A       EQUB 10
332E 00       EQUB 00
332F 00       EQUB 00
3330 00       EQUB 00
3331 00       EQUB 00
3332 00       EQUB 00
3333 00       EQUB 00
3334 00       EQUB 00
3335 00       EQUB 00
3336 00       EQUB 00
3337 00       EQUB 00
3338 05       EQUB 05
3339 05       EQUB 05
333A 05       EQUB 05
333B 05       EQUB 05
333C 05       EQUB 05
333D 00       EQUB 00
333E 00       EQUB 00
333F 00       EQUB 00
3340 00       EQUB 00
3341 00       EQUB 00
3342 00       EQUB 00
3343 00       EQUB 00
3344 00       EQUB 00
3345 00       EQUB 00
3346 05       EQUB 05
3347 00       EQUB 00
3348 0F       EQUB 15
3349 0F       EQUB 15
334A 0F       EQUB 15
334B 0F       EQUB 15
334C 0F       EQUB 15
334D 0F       EQUB 15
334E 0F       EQUB 15
334F 05       EQUB 05
3350 00       EQUB 00
3351 00       EQUB 00
3352 00       EQUB 00
3353 00       EQUB 00
3354 00       EQUB 00
3355 05       EQUB 05
3356 0F       EQUB 15
3357 00       EQUB 00
3358 0F       EQUB 15
3359 0F       EQUB 15
335A 0F       EQUB 15
335B 0F       EQUB 15
335C 0F       EQUB 15
335D 0F       EQUB 15
335E 0F       EQUB 15
335F 0F       EQUB 15
3360 0F       EQUB 15
3361 0F       EQUB 15
3362 0F       EQUB 15
3363 0F       EQUB 15
3364 0F       EQUB 15
3365 0F       EQUB 15
3366 0F       EQUB 15
3367 00       EQUB 00
3368 0F       EQUB 15
3369 0F       EQUB 15
336A 0F       EQUB 15
336B 1F       EQUB 31
336C 1F       EQUB 31
336D 2F       EQUB 47
336E 0F       EQUB 15
336F 0A       EQUB 10
3370 00       EQUB 00
3371 00       EQUB 00
3372 00       EQUB 00
3373 00       EQUB 00
3374 00       EQUB 00
3375 0A       EQUB 10
3376 0F       EQUB 15
3377 00       EQUB 00
3378 0A       EQUB 10
3379 0A       EQUB 10
337A 0A       EQUB 10
337B 0A       EQUB 10
337C 0A       EQUB 10
337D 00       EQUB 00
337E 00       EQUB 00
337F 00       EQUB 00
3380 00       EQUB 00
3381 00       EQUB 00
3382 00       EQUB 00
3383 00       EQUB 00
3384 00       EQUB 00
3385 00       EQUB 00
3386 0A       EQUB 10
3387 11       EQUB 17
3388 11       EQUB 17
3389 11       EQUB 17
338A 11       EQUB 17
338B 11       EQUB 17
338C 11       EQUB 17
338D 11       EQUB 17
338E 00       EQUB 00
338F 00       EQUB 00
3390 11       EQUB 17
3391 11       EQUB 17
3392 11       EQUB 17
3393 11       EQUB 17
3394 11       EQUB 17
3395 00       EQUB 00
3396 00       EQUB 00
3397 03       EQUB 03
3398 03       EQUB 03
3399 03       EQUB 03
339A 03       EQUB 03
339B 02       EQUB 02
339C 03       EQUB 03
339D 03       EQUB 03
339E 33       EQUB 51
339F 00       EQUB 00
33A0 03       EQUB 03
33A1 03       EQUB 03
33A2 02       EQUB 02
33A3 02       EQUB 02
33A4 03       EQUB 03
33A5 33       EQUB 51
33A6 00       EQUB 00
33A7 00       EQUB 00
33A8 00       EQUB 00
33A9 00       EQUB 00
33AA 02       EQUB 02
33AB 01       EQUB 01
33AC 03       EQUB 03
33AD 03       EQUB 03
33AE 33       EQUB 51
33AF 00       EQUB 00
33B0 03       EQUB 03
33B1 01       EQUB 01
33B2 03       EQUB 03
33B3 03       EQUB 03
33B4 03       EQUB 03
33B5 33       EQUB 51
33B6 00       EQUB 00
33B7 03       EQUB 03
33B8 03       EQUB 03
33B9 03       EQUB 03
33BA 03       EQUB 03
33BB 03       EQUB 03
33BC 03       EQUB 03
33BD 03       EQUB 03
33BE 33       EQUB 51
33BF 00       EQUB 00
33C0 03       EQUB 03
33C1 03       EQUB 03
33C2 03       EQUB 03
33C3 03       EQUB 03
33C4 03       EQUB 03
33C5 33       EQUB 51
33C6 00       EQUB 00
33C7 0C       EQUB 12
33C8 0C       EQUB 12
33C9 0C       EQUB 12
33CA 0C       EQUB 12
33CB 0C       EQUB 12
33CC 0C       EQUB 12
33CD 0C       EQUB 12
33CE 0C       EQUB 12
33CF 0C       EQUB 12
33D0 0C       EQUB 12
33D1 0C       EQUB 12
33D2 0C       EQUB 12
33D3 0C       EQUB 12
33D4 0C       EQUB 12
33D5 0C       EQUB 12
33D6 00       EQUB 00
33D7 04       EQUB 04
33D8 04       EQUB 04
33D9 04       EQUB 04
33DA 04       EQUB 04
33DB 04       EQUB 04
33DC 04       EQUB 04
33DD 04       EQUB 04
33DE 04       EQUB 04
33DF 04       EQUB 04
33E0 04       EQUB 04
33E1 04       EQUB 04
33E2 04       EQUB 04
33E3 04       EQUB 04
33E4 04       EQUB 04
33E5 04       EQUB 04
33E6 00       EQUB 00
33E7 19       EQUB 25
33E8 19       EQUB 25
33E9 19       EQUB 25
33EA 19       EQUB 25
33EB 19       EQUB 25
33EC 19       EQUB 25
33ED 19       EQUB 25
33EE 08       EQUB 08
33EF 08       EQUB 08
33F0 19       EQUB 25
33F1 19       EQUB 25
33F2 19       EQUB 25
33F3 19       EQUB 25
33F4 19       EQUB 25
33F5 19       EQUB 25
33F6 00       EQUB 00
33F7 03       EQUB 03
33F8 03       EQUB 03
33F9 01       EQUB 01
33FA 02       EQUB 02
33FB 03       EQUB 03
33FC 03       EQUB 03
33FD 03       EQUB 03
33FE 33       EQUB 51
33FF 00       EQUB 00
3400 03       EQUB 03
3401 03       EQUB 03
3402 03       EQUB 03
3403 03       EQUB 03
3404 03       EQUB 03
3405 33       EQUB 51
3406 00       EQUB 00
3407 03       EQUB 03
3408 03       EQUB 03
3409 03       EQUB 03
340A 01       EQUB 01
340B 02       EQUB 02
340C 03       EQUB 03
340D 03       EQUB 03
340E 33       EQUB 51
340F 00       EQUB 00
3410 03       EQUB 03
3411 03       EQUB 03
3412 01       EQUB 01
3413 01       EQUB 01
3414 03       EQUB 03
3415 33       EQUB 51
3416 00       EQUB 00
3417 03       EQUB 03
3418 03       EQUB 03
3419 03       EQUB 03
341A 03       EQUB 03
341B 03       EQUB 03
341C 03       EQUB 03
341D 03       EQUB 03
341E 33       EQUB 51
341F 00       EQUB 00
3420 03       EQUB 03
3421 03       EQUB 03
3422 03       EQUB 03
3423 03       EQUB 03
3424 03       EQUB 03
3425 33       EQUB 51
3426 00       EQUB 00
3427 3C       EQUB 60
3428 3C       EQUB 60
3429 3C       EQUB 60
342A 3C       EQUB 60
342B 3C       EQUB 60
342C 3C       EQUB 60
342D 3C       EQUB 60
342E 3C       EQUB 60
342F 3C       EQUB 60
3430 3C       EQUB 60
3431 3C       EQUB 60
3432 3C       EQUB 60
3433 3C       EQUB 60
3434 3C       EQUB 60
3435 3C       EQUB 60
3436 3C       EQUB 60
3437 3C       EQUB 60
3438 3C       EQUB 60
3439 3C       EQUB 60
343A 3C       EQUB 60
343B 3C       EQUB 60
343C 3C       EQUB 60
343D 3C       EQUB 60
343E 3C       EQUB 60
343F 3C       EQUB 60
3440 3C       EQUB 60
3441 3C       EQUB 60
3442 3C       EQUB 60
3443 3C       EQUB 60
3444 3C       EQUB 60
3445 3C       EQUB 60
3446 3C       EQUB 60
3447 14       EQUB 20
3448 14       EQUB 20
3449 14       EQUB 20
344A 14       EQUB 20
344B 14       EQUB 20
344C 14       EQUB 20
344D 14       EQUB 20
344E 14       EQUB 20
344F 14       EQUB 20
3450 14       EQUB 20
3451 14       EQUB 20
3452 14       EQUB 20
3453 14       EQUB 20
3454 14       EQUB 20
3455 14       EQUB 20
3456 14       EQUB 20
3457 3C       EQUB 60
3458 3C       EQUB 60
3459 3C       EQUB 60
345A 3C       EQUB 60
345B 3C       EQUB 60
345C 3C       EQUB 60
345D 3C       EQUB 60
345E 3C       EQUB 60
345F 3C       EQUB 60
3460 3C       EQUB 60
3461 3C       EQUB 60
3462 3C       EQUB 60
3463 3C       EQUB 60
3464 3C       EQUB 60
3465 3C       EQUB 60
3466 3C       EQUB 60
3467 3C       EQUB 60
3468 3C       EQUB 60
3469 3C       EQUB 60
346A 3C       EQUB 60
346B 3C       EQUB 60
346C 3C       EQUB 60
346D 3C       EQUB 60
346E 3C       EQUB 60
346F 3C       EQUB 60
3470 3C       EQUB 60
3471 3C       EQUB 60
3472 3C       EQUB 60
3473 3C       EQUB 60
3474 3C       EQUB 60
3475 3C       EQUB 60
3476 3C       EQUB 60
3477 3C       EQUB 60
3478 3C       EQUB 60
3479 3C       EQUB 60
347A 3C       EQUB 60
347B 3C       EQUB 60
347C 3C       EQUB 60
347D 00       EQUB 00
347E 00       EQUB 00
347F 00       EQUB 00
3480 00       EQUB 00
3481 3C       EQUB 60
3482 3C       EQUB 60
3483 3C       EQUB 60
3484 3C       EQUB 60
3485 3C       EQUB 60
3486 3C       EQUB 60
3487 3C       EQUB 60
3488 3C       EQUB 60
3489 3C       EQUB 60
348A 3C       EQUB 60
348B 3C       EQUB 60
348C 3C       EQUB 60
348D 00       EQUB 00
348E 00       EQUB 00
348F 00       EQUB 00
3490 00       EQUB 00
3491 3C       EQUB 60
3492 3C       EQUB 60
3493 3C       EQUB 60
3494 3C       EQUB 60
3495 3C       EQUB 60
3496 3C       EQUB 60
3497 3C       EQUB 60
3498 3C       EQUB 60
3499 3C       EQUB 60
349A 3C       EQUB 60
349B 3C       EQUB 60
349C 3C       EQUB 60
349D 3C       EQUB 60
349E 00       EQUB 00
349F 00       EQUB 00
34A0 3C       EQUB 60
34A1 3C       EQUB 60
34A2 3C       EQUB 60
34A3 3C       EQUB 60
34A4 3C       EQUB 60
34A5 3C       EQUB 60
34A6 3C       EQUB 60
34A7 3C       EQUB 60
34A8 3C       EQUB 60
34A9 3C       EQUB 60
34AA 3C       EQUB 60
34AB 3C       EQUB 60
34AC 3C       EQUB 60
34AD 3C       EQUB 60
34AE 00       EQUB 00
34AF 00       EQUB 00
34B0 3C       EQUB 60
34B1 3C       EQUB 60
34B2 3C       EQUB 60
34B3 3C       EQUB 60
34B4 3C       EQUB 60
34B5 3C       EQUB 60
34B6 3C       EQUB 60
34B7 3C       EQUB 60
34B8 3C       EQUB 60
34B9 3C       EQUB 60
34BA 3C       EQUB 60
34BB 3C       EQUB 60
34BC 3C       EQUB 60
34BD 3C       EQUB 60
34BE 3C       EQUB 60
34BF 3C       EQUB 60
34C0 3C       EQUB 60
34C1 3C       EQUB 60
34C2 3C       EQUB 60
34C3 3C       EQUB 60
34C4 3C       EQUB 60
34C5 3C       EQUB 60
34C6 3C       EQUB 60
34C7 3C       EQUB 60
34C8 3C       EQUB 60
34C9 3C       EQUB 60
34CA 3C       EQUB 60
34CB 3C       EQUB 60
34CC 3C       EQUB 60
34CD 00       EQUB 00
34CE 00       EQUB 00
34CF 00       EQUB 00
34D0 00       EQUB 00
34D1 3C       EQUB 60
34D2 3C       EQUB 60
34D3 3C       EQUB 60
34D4 3C       EQUB 60
34D5 3C       EQUB 60
34D6 3C       EQUB 60
34D7 3C       EQUB 60
34D8 3C       EQUB 60
34D9 3C       EQUB 60
34DA 3C       EQUB 60
34DB 3C       EQUB 60
34DC 3C       EQUB 60
34DD 00       EQUB 00
34DE 00       EQUB 00
34DF 00       EQUB 00
34E0 00       EQUB 00
34E1 3C       EQUB 60
34E2 3C       EQUB 60
34E3 3C       EQUB 60
34E4 3C       EQUB 60
34E5 3C       EQUB 60
34E6 3C       EQUB 60
34E7 3C       EQUB 60
34E8 3C       EQUB 60
34E9 3C       EQUB 60
34EA 3C       EQUB 60
34EB 3C       EQUB 60
34EC 3C       EQUB 60
34ED 3C       EQUB 60
34EE 00       EQUB 00
34EF 00       EQUB 00
34F0 3C       EQUB 60
34F1 3C       EQUB 60
34F2 3C       EQUB 60
34F3 29       EQUB 41
34F4 29       EQUB 41
34F5 3C       EQUB 60
34F6 3C       EQUB 60
34F7 3C       EQUB 60
34F8 3C       EQUB 60
34F9 3C       EQUB 60
34FA 3C       EQUB 60
34FB 3C       EQUB 60
34FC 3C       EQUB 60
34FD 3C       EQUB 60
34FE 00       EQUB 00
34FF 00       EQUB 00
3500 29       EQUB 41
3501 29       EQUB 41
3502 16       EQUB 22
3503 3C       EQUB 60
3504 3C       EQUB 60
3505 16       EQUB 22
3506 29       EQUB 41
3507 3C       EQUB 60
3508 3C       EQUB 60
3509 3C       EQUB 60
350A 3C       EQUB 60
350B 3C       EQUB 60
350C 3C       EQUB 60
350D 3C       EQUB 60
350E 3C       EQUB 60
350F 3C       EQUB 60
3510 3C       EQUB 60
3511 3C       EQUB 60
3512 16       EQUB 22
3513 29       EQUB 41
3514 29       EQUB 41
3515 16       EQUB 22
3516 3C       EQUB 60
3517 3C       EQUB 60
3518 3C       EQUB 60
3519 3C       EQUB 60
351A 3C       EQUB 60
351B 3C       EQUB 60
351C 3C       EQUB 60
351D 3C       EQUB 60
351E 3C       EQUB 60
351F 3C       EQUB 60
3520 3C       EQUB 60
3521 3C       EQUB 60
3522 3C       EQUB 60
3523 3C       EQUB 60
3524 3C       EQUB 60
3525 3C       EQUB 60
3526 3C       EQUB 60
3527 3C       EQUB 60
3528 3C       EQUB 60
3529 3C       EQUB 60
352A 3C       EQUB 60
352B 3C       EQUB 60
352C 3C       EQUB 60
352D 3C       EQUB 60
352E 00       EQUB 00
352F 00       EQUB 00
3530 3C       EQUB 60
3531 3C       EQUB 60
3532 3C       EQUB 60
3533 3C       EQUB 60
3534 3C       EQUB 60
3535 3C       EQUB 60
3536 3C       EQUB 60
3537 3C       EQUB 60
3538 3C       EQUB 60
3539 3C       EQUB 60
353A 3C       EQUB 60
353B 3C       EQUB 60
353C 3C       EQUB 60
353D 3C       EQUB 60
353E 00       EQUB 00
353F 00       EQUB 00
3540 3C       EQUB 60
3541 3C       EQUB 60
3542 3C       EQUB 60
3543 3C       EQUB 60
3544 3C       EQUB 60
3545 3C       EQUB 60
3546 3C       EQUB 60
3547 3C       EQUB 60
3548 3C       EQUB 60
3549 3C       EQUB 60
354A 3C       EQUB 60
354B 3C       EQUB 60
354C 3C       EQUB 60
354D 00       EQUB 00
354E 00       EQUB 00
354F 00       EQUB 00
3550 00       EQUB 00
3551 3C       EQUB 60
3552 3C       EQUB 60
3553 3C       EQUB 60
3554 3C       EQUB 60
3555 3C       EQUB 60
3556 3C       EQUB 60
3557 28       EQUB 40
3558 29       EQUB 41
3559 29       EQUB 41
355A 29       EQUB 41
355B 29       EQUB 41
355C 29       EQUB 41
355D 01       EQUB 01
355E 01       EQUB 01
355F 01       EQUB 01
3560 01       EQUB 01
3561 29       EQUB 41
3562 29       EQUB 41
3563 29       EQUB 41
3564 29       EQUB 41
3565 29       EQUB 41
3566 28       EQUB 40
3567 3C       EQUB 60
3568 3C       EQUB 60
3569 3C       EQUB 60
356A 3C       EQUB 60
356B 3C       EQUB 60
356C 3C       EQUB 60
356D 3C       EQUB 60
356E 3C       EQUB 60
356F 3C       EQUB 60
3570 3C       EQUB 60
3571 3C       EQUB 60
3572 29       EQUB 41
3573 16       EQUB 22
3574 16       EQUB 22
3575 29       EQUB 41
3576 3C       EQUB 60
3577 3C       EQUB 60
3578 3C       EQUB 60
3579 3C       EQUB 60
357A 3C       EQUB 60
357B 3C       EQUB 60
357C 3C       EQUB 60
357D 3C       EQUB 60
357E 00       EQUB 00
357F 00       EQUB 00
3580 16       EQUB 22
3581 16       EQUB 22
3582 29       EQUB 41
3583 3C       EQUB 60
3584 3C       EQUB 60
3585 29       EQUB 41
3586 16       EQUB 22
3587 3C       EQUB 60
3588 3C       EQUB 60
3589 3C       EQUB 60
358A 3C       EQUB 60
358B 3C       EQUB 60
358C 3C       EQUB 60
358D 3C       EQUB 60
358E 00       EQUB 00
358F 00       EQUB 00
3590 3C       EQUB 60
3591 3C       EQUB 60
3592 3C       EQUB 60
3593 16       EQUB 22
3594 16       EQUB 22
3595 3C       EQUB 60
3596 3C       EQUB 60
3597 3C       EQUB 60
3598 3C       EQUB 60
3599 3C       EQUB 60
359A 3C       EQUB 60
359B 3C       EQUB 60
359C 3C       EQUB 60
359D 00       EQUB 00
359E 00       EQUB 00
359F 00       EQUB 00
35A0 00       EQUB 00
35A1 3C       EQUB 60
35A2 3C       EQUB 60
35A3 3C       EQUB 60
35A4 3C       EQUB 60
35A5 3C       EQUB 60
35A6 3C       EQUB 60
35A7 3D       EQUB 61
35A8 29       EQUB 41
35A9 29       EQUB 41
35AA 29       EQUB 41
35AB 29       EQUB 41
35AC 29       EQUB 41
35AD 01       EQUB 01
35AE 01       EQUB 01
35AF 01       EQUB 01
35B0 01       EQUB 01
35B1 29       EQUB 41
35B2 29       EQUB 41
35B3 29       EQUB 41
35B4 29       EQUB 41
35B5 29       EQUB 41
35B6 3D       EQUB 61
35B7 00       EQUB 00
35B8 00       EQUB 00
35B9 00       EQUB 00
35BA 00       EQUB 00
35BB 00       EQUB 00
35BC 00       EQUB 00
35BD 00       EQUB 00
35BE 00       EQUB 00
35BF 00       EQUB 00
35C0 00       EQUB 00
35C1 00       EQUB 00
35C2 00       EQUB 00
35C3 00       EQUB 00
35C4 00       EQUB 00
35C5 00       EQUB 00
35C6 00       EQUB 00
35C7 00       EQUB 00
35C8 00       EQUB 00
35C9 00       EQUB 00
35CA 00       EQUB 00
35CB 00       EQUB 00
35CC 00       EQUB 00
35CD 00       EQUB 00
35CE 00       EQUB 00
35CF 00       EQUB 00
35D0 00       EQUB 00
35D1 00       EQUB 00
35D2 00       EQUB 00
35D3 00       EQUB 00
35D4 00       EQUB 00
35D5 00       EQUB 00
35D6 00       EQUB 00
35D7 00       EQUB 00
35D8 00       EQUB 00
35D9 00       EQUB 00
35DA 00       EQUB 00
35DB 00       EQUB 00
35DC 00       EQUB 00
35DD 00       EQUB 00
35DE 00       EQUB 00
35DF 00       EQUB 00
35E0 00       EQUB 00
35E1 00       EQUB 00
35E2 00       EQUB 00
35E3 00       EQUB 00
35E4 00       EQUB 00
35E5 00       EQUB 00
35E6 00       EQUB 00
35E7 00       EQUB 00
35E8 00       EQUB 00
35E9 00       EQUB 00
35EA 00       EQUB 00
35EB 00       EQUB 00
35EC 00       EQUB 00
35ED 00       EQUB 00
35EE 00       EQUB 00
35EF 00       EQUB 00
35F0 00       EQUB 00
35F1 00       EQUB 00
35F2 00       EQUB 00
35F3 00       EQUB 00
35F4 00       EQUB 00
35F5 00       EQUB 00
35F6 00       EQUB 00
35F7 00       EQUB 00
35F8 00       EQUB 00
35F9 00       EQUB 00
35FA 00       EQUB 00
35FB 00       EQUB 00
35FC 00       EQUB 00
35FD 00       EQUB 00
35FE 00       EQUB 00
35FF 00       EQUB 00
3600 00       EQUB 00
3601 00       EQUB 00
3602 00       EQUB 00
3603 00       EQUB 00
3604 00       EQUB 00
3605 00       EQUB 00
3606 00       EQUB 00
3607 00       EQUB 00
3608 00       EQUB 00
3609 00       EQUB 00
360A 00       EQUB 00
360B 00       EQUB 00
360C 00       EQUB 00
360D 00       EQUB 00
360E 00       EQUB 00
360F 00       EQUB 00
3610 00       EQUB 00
3611 00       EQUB 00
3612 00       EQUB 00
3613 00       EQUB 00
3614 00       EQUB 00
3615 00       EQUB 00
3616 00       EQUB 00
3617 00       EQUB 00
3618 00       EQUB 00
3619 05       EQUB 05
361A 0A       EQUB 10
361B 0A       EQUB 10
361C 05       EQUB 05
361D 00       EQUB 00
361E 00       EQUB 00
361F 00       EQUB 00
3620 00       EQUB 00
3621 00       EQUB 00
3622 00       EQUB 00
3623 00       EQUB 00
3624 00       EQUB 00
3625 00       EQUB 00
3626 00       EQUB 00
3627 00       EQUB 00
3628 0A       EQUB 10
3629 05       EQUB 05
362A 00       EQUB 00
362B 00       EQUB 00
362C 05       EQUB 05
362D 0A       EQUB 10
362E 0A       EQUB 10
362F 0A       EQUB 10
3630 0A       EQUB 10
3631 0F       EQUB 15
3632 0F       EQUB 15
3633 0F       EQUB 15
3634 0F       EQUB 15
3635 0A       EQUB 10
3636 00       EQUB 00
3637 00       EQUB 00
3638 00       EQUB 00
3639 00       EQUB 00
363A 0A       EQUB 10
363B 0A       EQUB 10
363C 00       EQUB 00
363D 00       EQUB 00
363E 00       EQUB 00
363F 00       EQUB 00
3640 00       EQUB 00
3641 0A       EQUB 10
3642 00       EQUB 00
3643 0F       EQUB 15
3644 0A       EQUB 10
3645 00       EQUB 00
3646 00       EQUB 00
3647 00       EQUB 00
3648 00       EQUB 00
3649 00       EQUB 00
364A 00       EQUB 00
364B 00       EQUB 00
364C 00       EQUB 00
364D 00       EQUB 00
364E 00       EQUB 00
364F 00       EQUB 00
3650 00       EQUB 00
3651 00       EQUB 00
3652 00       EQUB 00
3653 00       EQUB 00
3654 00       EQUB 00
3655 00       EQUB 00
3656 00       EQUB 00
3657 33       EQUB 51
3658 33       EQUB 51
3659 33       EQUB 51
365A 33       EQUB 51
365B 33       EQUB 51
365C 33       EQUB 51
365D 33       EQUB 51
365E 33       EQUB 51
365F 33       EQUB 51
3660 33       EQUB 51
3661 33       EQUB 51
3662 33       EQUB 51
3663 33       EQUB 51
3664 33       EQUB 51
3665 00       EQUB 00
3666 00       EQUB 00
3667 03       EQUB 03
3668 03       EQUB 03
3669 03       EQUB 03
366A 03       EQUB 03
366B 03       EQUB 03
366C 03       EQUB 03
366D 03       EQUB 03
366E 33       EQUB 51
366F 03       EQUB 03
3670 03       EQUB 03
3671 03       EQUB 03
3672 03       EQUB 03
3673 03       EQUB 03
3674 03       EQUB 03
3675 33       EQUB 51
3676 00       EQUB 00
3677 03       EQUB 03
3678 03       EQUB 03
3679 03       EQUB 03
367A 03       EQUB 03
367B 02       EQUB 02
367C 00       EQUB 00
367D 00       EQUB 00
367E 02       EQUB 02
367F 02       EQUB 02
3680 02       EQUB 02
3681 03       EQUB 03
3682 03       EQUB 03
3683 03       EQUB 03
3684 03       EQUB 03
3685 33       EQUB 51
3686 00       EQUB 00
3687 03       EQUB 03
3688 03       EQUB 03
3689 03       EQUB 03
368A 03       EQUB 03
368B 01       EQUB 01
368C 00       EQUB 00
368D 00       EQUB 00
368E 01       EQUB 01
368F 01       EQUB 01
3690 01       EQUB 01
3691 03       EQUB 03
3692 03       EQUB 03
3693 03       EQUB 03
3694 03       EQUB 03
3695 33       EQUB 51
3696 00       EQUB 00
3697 03       EQUB 03
3698 03       EQUB 03
3699 03       EQUB 03
369A 03       EQUB 03
369B 03       EQUB 03
369C 03       EQUB 03
369D 03       EQUB 03
369E 33       EQUB 51
369F 03       EQUB 03
36A0 03       EQUB 03
36A1 03       EQUB 03
36A2 03       EQUB 03
36A3 03       EQUB 03
36A4 03       EQUB 03
36A5 33       EQUB 51
36A6 00       EQUB 00
36A7 00       EQUB 00
36A8 00       EQUB 00
36A9 00       EQUB 00
36AA 00       EQUB 00
36AB 00       EQUB 00
36AC 00       EQUB 00
36AD 00       EQUB 00
36AE 00       EQUB 00
36AF 55       EQUB 85
36B0 55       EQUB 85
36B1 00       EQUB 00
36B2 55       EQUB 85
36B3 AA       EQUB 170
36B4 AA       EQUB 170
36B5 FF       EQUB 255
36B6 55       EQUB 85
36B7 00       EQUB 00
36B8 00       EQUB 00
36B9 00       EQUB 00
36BA 00       EQUB 00
36BB 00       EQUB 00
36BC 00       EQUB 00
36BD 00       EQUB 00
36BE 00       EQUB 00
36BF 00       EQUB 00
36C0 AA       EQUB 170
36C1 AA       EQUB 170
36C2 AA       EQUB 170
36C3 00       EQUB 00
36C4 55       EQUB 85
36C5 FF       EQUB 255
36C6 FF       EQUB 255
36C7 00       EQUB 00
36C8 00       EQUB 00
36C9 00       EQUB 00
36CA 00       EQUB 00
36CB 00       EQUB 00
36CC 00       EQUB 00
36CD 00       EQUB 00
36CE 00       EQUB 00
36CF 00       EQUB 00
36D0 00       EQUB 00
36D1 55       EQUB 85
36D2 FF       EQUB 255
36D3 FF       EQUB 255
36D4 FF       EQUB 255
36D5 AA       EQUB 170
36D6 00       EQUB 00
36D7 55       EQUB 85
36D8 FF       EQUB 255
36D9 FF       EQUB 255
36DA FF       EQUB 255
36DB FF       EQUB 255
36DC FF       EQUB 255
36DD 55       EQUB 85
36DE 55       EQUB 85
36DF 00       EQUB 00
36E0 00       EQUB 00
36E1 00       EQUB 00
36E2 AA       EQUB 170
36E3 FF       EQUB 255
36E4 FF       EQUB 255
36E5 FF       EQUB 255
36E6 55       EQUB 85
36E7 AA       EQUB 170
36E8 FF       EQUB 255
36E9 FF       EQUB 255
36EA AA       EQUB 170
36EB 00       EQUB 00
36EC 00       EQUB 00
36ED AA       EQUB 170
36EE FF       EQUB 255
36EF FF       EQUB 255
36F0 FF       EQUB 255
36F1 FF       EQUB 255
36F2 FF       EQUB 255
36F3 FF       EQUB 255
36F4 FF       EQUB 255
36F5 FF       EQUB 255
36F6 AA       EQUB 170
36F7 00       EQUB 00
36F8 00       EQUB 00
36F9 00       EQUB 00
36FA 00       EQUB 00
36FB 00       EQUB 00
36FC 00       EQUB 00
36FD 00       EQUB 00
36FE 00       EQUB 00
36FF 00       EQUB 00
3700 00       EQUB 00
3701 00       EQUB 00
3702 00       EQUB 00
3703 55       EQUB 85
3704 55       EQUB 85
3705 55       EQUB 85
3706 00       EQUB 00
3707 00       EQUB 00
3708 55       EQUB 85
3709 55       EQUB 85
370A 55       EQUB 85
370B 55       EQUB 85
370C 00       EQUB 00
370D 00       EQUB 00
370E 55       EQUB 85
370F FF       EQUB 255
3710 FF       EQUB 255
3711 FF       EQUB 255
3712 55       EQUB 85
3713 00       EQUB 00
3714 AA       EQUB 170
3715 FF       EQUB 255
3716 FF       EQUB 255
3717 FF       EQUB 255
3718 FF       EQUB 255
3719 FF       EQUB 255
371A FF       EQUB 255
371B AA       EQUB 170
371C FF       EQUB 255
371D FF       EQUB 255
371E FF       EQUB 255
371F AA       EQUB 170
3720 AA       EQUB 170
3721 FF       EQUB 255
3722 FF       EQUB 255
3723 FF       EQUB 255
3724 55       EQUB 85
3725 FF       EQUB 255
3726 FF       EQUB 255
3727 AA       EQUB 170
3728 FF       EQUB 255
3729 FF       EQUB 255
372A AA       EQUB 170
372B 00       EQUB 00
372C 00       EQUB 00
372D 00       EQUB 00
372E 00       EQUB 00
372F 00       EQUB 00
3730 00       EQUB 00
3731 00       EQUB 00
3732 AA       EQUB 170
3733 FF       EQUB 255
3734 FF       EQUB 255
3735 FF       EQUB 255
3736 AA       EQUB 170
3737 00       EQUB 00
3738 00       EQUB 00
3739 00       EQUB 00
373A 00       EQUB 00
373B 00       EQUB 00
373C 00       EQUB 00
373D 00       EQUB 00
373E 00       EQUB 00
373F 00       EQUB 00
3740 00       EQUB 00
3741 00       EQUB 00
3742 00       EQUB 00
3743 00       EQUB 00
3744 00       EQUB 00
3745 00       EQUB 00
3746 00       EQUB 00
3747 55       EQUB 85
3748 FF       EQUB 255
3749 FF       EQUB 255
374A 55       EQUB 85
374B 00       EQUB 00
374C 00       EQUB 00
374D 55       EQUB 85
374E FF       EQUB 255
374F FF       EQUB 255
3750 FF       EQUB 255
3751 FF       EQUB 255
3752 FF       EQUB 255
3753 FF       EQUB 255
3754 FF       EQUB 255
3755 FF       EQUB 255
3756 55       EQUB 85
3757 AA       EQUB 170
3758 FF       EQUB 255
3759 FF       EQUB 255
375A FF       EQUB 255
375B FF       EQUB 255
375C FF       EQUB 255
375D AA       EQUB 170
375E AA       EQUB 170
375F 00       EQUB 00
3760 00       EQUB 00
3761 00       EQUB 00
3762 55       EQUB 85
3763 FF       EQUB 255
3764 FF       EQUB 255
3765 FF       EQUB 255
3766 AA       EQUB 170
3767 00       EQUB 00
3768 00       EQUB 00
3769 00       EQUB 00
376A 00       EQUB 00
376B 00       EQUB 00
376C 00       EQUB 00
376D 00       EQUB 00
376E 00       EQUB 00
376F 00       EQUB 00
3770 00       EQUB 00
3771 AA       EQUB 170
3772 FF       EQUB 255
3773 FF       EQUB 255
3774 FF       EQUB 255
3775 55       EQUB 85
3776 00       EQUB 00
3777 00       EQUB 00
3778 00       EQUB 00
3779 00       EQUB 00
377A 00       EQUB 00
377B 00       EQUB 00
377C 00       EQUB 00
377D 00       EQUB 00
377E 00       EQUB 00
377F 00       EQUB 00
3780 55       EQUB 85
3781 55       EQUB 85
3782 55       EQUB 85
3783 00       EQUB 00
3784 AA       EQUB 170
3785 FF       EQUB 255
3786 FF       EQUB 255
3787 00       EQUB 00
3788 00       EQUB 00
3789 00       EQUB 00
378A 00       EQUB 00
378B 00       EQUB 00
378C 00       EQUB 00
378D 00       EQUB 00
378E 00       EQUB 00
378F AA       EQUB 170
3790 AA       EQUB 170
3791 00       EQUB 00
3792 AA       EQUB 170
3793 55       EQUB 85
3794 55       EQUB 85
3795 FF       EQUB 255
3796 AA       EQUB 170
3797 00       EQUB 00
3798 00       EQUB 00
3799 00       EQUB 00
379A 00       EQUB 00
379B 00       EQUB 00
379C 00       EQUB 00
379D 00       EQUB 00
379E 00       EQUB 00
379F 00       EQUB 00
37A0 00       EQUB 00
37A1 00       EQUB 00
37A2 00       EQUB 00
37A3 00       EQUB 00
37A4 00       EQUB 00
37A5 00       EQUB 00
37A6 00       EQUB 00
37A7 55       EQUB 85
37A8 FF       EQUB 255
37A9 FF       EQUB 255
37AA 55       EQUB 85
37AB 00       EQUB 00
37AC 00       EQUB 00
37AD 00       EQUB 00
37AE 00       EQUB 00
37AF 00       EQUB 00
37B0 00       EQUB 00
37B1 00       EQUB 00
37B2 55       EQUB 85
37B3 FF       EQUB 255
37B4 FF       EQUB 255
37B5 FF       EQUB 255
37B6 55       EQUB 85
37B7 FF       EQUB 255
37B8 FF       EQUB 255
37B9 FF       EQUB 255
37BA FF       EQUB 255
37BB 55       EQUB 85
37BC FF       EQUB 255
37BD FF       EQUB 255
37BE FF       EQUB 255
37BF 55       EQUB 85
37C0 55       EQUB 85
37C1 FF       EQUB 255
37C2 FF       EQUB 255
37C3 FF       EQUB 255
37C4 AA       EQUB 170
37C5 FF       EQUB 255
37C6 FF       EQUB 255
37C7 00       EQUB 00
37C8 AA       EQUB 170
37C9 AA       EQUB 170
37CA AA       EQUB 170
37CB AA       EQUB 170
37CC 00       EQUB 00
37CD 00       EQUB 00
37CE AA       EQUB 170
37CF FF       EQUB 255
37D0 FF       EQUB 255
37D1 FF       EQUB 255
37D2 AA       EQUB 170
37D3 00       EQUB 00
37D4 55       EQUB 85
37D5 FF       EQUB 255
37D6 FF       EQUB 255
37D7 00       EQUB 00
37D8 00       EQUB 00
37D9 00       EQUB 00
37DA 00       EQUB 00
37DB 00       EQUB 00
37DC 00       EQUB 00
37DD 00       EQUB 00
37DE 00       EQUB 00
37DF 00       EQUB 00
37E0 00       EQUB 00
37E1 00       EQUB 00
37E2 00       EQUB 00
37E3 AA       EQUB 170
37E4 AA       EQUB 170
37E5 AA       EQUB 170
37E6 00       EQUB 00
37E7 00       EQUB 00
37E8 05       EQUB 05
37E9 00       EQUB 00
37EA 00       EQUB 00
37EB 00       EQUB 00
37EC 00       EQUB 00
37ED 00       EQUB 00
37EE 00       EQUB 00
37EF 00       EQUB 00
37F0 00       EQUB 00
37F1 00       EQUB 00
37F2 00       EQUB 00
37F3 00       EQUB 00
37F4 00       EQUB 00
37F5 00       EQUB 00
37F6 00       EQUB 00
37F7 05       EQUB 05
37F8 0F       EQUB 15
37F9 15       EQUB 21
37FA 15       EQUB 21
37FB 00       EQUB 00
37FC 00       EQUB 00
37FD 03       EQUB 03
37FE 03       EQUB 03
37FF 03       EQUB 03
3800 03       EQUB 03
3801 3A       EQUB 58
3802 10       EQUB 16
3803 10       EQUB 16
3804 04       EQUB 04
3805 00       EQUB 00
3806 00       EQUB 00
3807 0F       EQUB 15
3808 0F       EQUB 15
3809 3F       EQUB 63
380A 3F       EQUB 63
380B 3F       EQUB 63
380C 3F       EQUB 63
380D 03       EQUB 03
380E 03       EQUB 03
380F 03       EQUB 03
3810 03       EQUB 03
3811 30       EQUB 48
3812 20       EQUB 32
3813 20       EQUB 32
3814 08       EQUB 08
3815 00       EQUB 00
3816 00       EQUB 00
3817 0F       EQUB 15
3818 0F       EQUB 15
3819 3F       EQUB 63
381A 3F       EQUB 63
381B 2A       EQUB 42
381C 2A       EQUB 42
381D 03       EQUB 03
381E 03       EQUB 03
381F 03       EQUB 03
3820 03       EQUB 03
3821 30       EQUB 48
3822 30       EQUB 48
3823 30       EQUB 48
3824 30       EQUB 48
3825 30       EQUB 48
3826 0C       EQUB 12
3827 00       EQUB 00
3828 0F       EQUB 15
3829 00       EQUB 00
382A 00       EQUB 00
382B 00       EQUB 00
382C 00       EQUB 00
382D 02       EQUB 02
382E 02       EQUB 02
382F 02       EQUB 02
3830 02       EQUB 02
3831 00       EQUB 00
3832 00       EQUB 00
3833 00       EQUB 00
3834 00       EQUB 00
3835 00       EQUB 00
3836 00       EQUB 00
3837 00       EQUB 00
3838 05       EQUB 05
3839 00       EQUB 00
383A 00       EQUB 00
383B 00       EQUB 00
383C 00       EQUB 00
383D 00       EQUB 00
383E 00       EQUB 00
383F 00       EQUB 00
3840 00       EQUB 00
3841 00       EQUB 00
3842 00       EQUB 00
3843 00       EQUB 00
3844 00       EQUB 00
3845 00       EQUB 00
3846 00       EQUB 00
3847 05       EQUB 05
3848 0F       EQUB 15
3849 15       EQUB 21
384A 15       EQUB 21
384B 00       EQUB 00
384C 00       EQUB 00
384D 03       EQUB 03
384E 03       EQUB 03
384F 03       EQUB 03
3850 03       EQUB 03
3851 3A       EQUB 58
3852 10       EQUB 16
3853 10       EQUB 16
3854 10       EQUB 16
3855 10       EQUB 16
3856 04       EQUB 04
3857 0F       EQUB 15
3858 0F       EQUB 15
3859 3F       EQUB 63
385A 3F       EQUB 63
385B 3F       EQUB 63
385C 3F       EQUB 63
385D 03       EQUB 03
385E 03       EQUB 03
385F 03       EQUB 03
3860 03       EQUB 03
3861 30       EQUB 48
3862 20       EQUB 32
3863 20       EQUB 32
3864 20       EQUB 32
3865 20       EQUB 32
3866 08       EQUB 08
3867 0F       EQUB 15
3868 0F       EQUB 15
3869 3F       EQUB 63
386A 3F       EQUB 63
386B 2A       EQUB 42
386C 2A       EQUB 42
386D 03       EQUB 03
386E 03       EQUB 03
386F 03       EQUB 03
3870 03       EQUB 03
3871 30       EQUB 48
3872 30       EQUB 48
3873 30       EQUB 48
3874 0C       EQUB 12
3875 00       EQUB 00
3876 00       EQUB 00
3877 00       EQUB 00
3878 0F       EQUB 15
3879 00       EQUB 00
387A 00       EQUB 00
387B 00       EQUB 00
387C 00       EQUB 00
387D 02       EQUB 02
387E 02       EQUB 02
387F 02       EQUB 02
3880 02       EQUB 02
3881 00       EQUB 00
3882 00       EQUB 00
3883 00       EQUB 00
3884 00       EQUB 00
3885 00       EQUB 00
3886 00       EQUB 00
3887 00       EQUB 00
3888 05       EQUB 05
3889 00       EQUB 00
388A 00       EQUB 00
388B 00       EQUB 00
388C 00       EQUB 00
388D 00       EQUB 00
388E 00       EQUB 00
388F 00       EQUB 00
3890 00       EQUB 00
3891 00       EQUB 00
3892 00       EQUB 00
3893 00       EQUB 00
3894 00       EQUB 00
3895 00       EQUB 00
3896 00       EQUB 00
3897 05       EQUB 05
3898 0F       EQUB 15
3899 15       EQUB 21
389A 15       EQUB 21
389B 00       EQUB 00
389C 00       EQUB 00
389D 03       EQUB 03
389E 03       EQUB 03
389F 03       EQUB 03
38A0 03       EQUB 03
38A1 3A       EQUB 58
38A2 10       EQUB 16
38A3 10       EQUB 16
38A4 10       EQUB 16
38A5 10       EQUB 16
38A6 04       EQUB 04
38A7 0F       EQUB 15
38A8 0F       EQUB 15
38A9 15       EQUB 21
38AA 3F       EQUB 63
38AB 2A       EQUB 42
38AC 3F       EQUB 63
38AD 03       EQUB 03
38AE 03       EQUB 03
38AF 03       EQUB 03
38B0 03       EQUB 03
38B1 30       EQUB 48
38B2 20       EQUB 32
38B3 20       EQUB 32
38B4 20       EQUB 32
38B5 20       EQUB 32
38B6 08       EQUB 08
38B7 0F       EQUB 15
38B8 0F       EQUB 15
38B9 15       EQUB 21
38BA 3F       EQUB 63
38BB 2A       EQUB 42
38BC 2A       EQUB 42
38BD 03       EQUB 03
38BE 03       EQUB 03
38BF 03       EQUB 03
38C0 03       EQUB 03
38C1 30       EQUB 48
38C2 30       EQUB 48
38C3 30       EQUB 48
38C4 0C       EQUB 12
38C5 00       EQUB 00
38C6 00       EQUB 00
38C7 00       EQUB 00
38C8 0F       EQUB 15
38C9 00       EQUB 00
38CA 00       EQUB 00
38CB 00       EQUB 00
38CC 00       EQUB 00
38CD 02       EQUB 02
38CE 02       EQUB 02
38CF 2A       EQUB 42
38D0 02       EQUB 02
38D1 00       EQUB 00
38D2 00       EQUB 00
38D3 00       EQUB 00
38D4 00       EQUB 00
38D5 00       EQUB 00
38D6 00       EQUB 00
38D7 00       EQUB 00
38D8 05       EQUB 05
38D9 00       EQUB 00
38DA 00       EQUB 00
38DB 00       EQUB 00
38DC 00       EQUB 00
38DD 00       EQUB 00
38DE 00       EQUB 00
38DF 00       EQUB 00
38E0 00       EQUB 00
38E1 00       EQUB 00
38E2 00       EQUB 00
38E3 00       EQUB 00
38E4 00       EQUB 00
38E5 00       EQUB 00
38E6 00       EQUB 00
38E7 05       EQUB 05
38E8 0F       EQUB 15
38E9 15       EQUB 21
38EA 15       EQUB 21
38EB 00       EQUB 00
38EC 00       EQUB 00
38ED 03       EQUB 03
38EE 03       EQUB 03
38EF 03       EQUB 03
38F0 03       EQUB 03
38F1 3A       EQUB 58
38F2 10       EQUB 16
38F3 10       EQUB 16
38F4 04       EQUB 04
38F5 00       EQUB 00
38F6 00       EQUB 00
38F7 0F       EQUB 15
38F8 0F       EQUB 15
38F9 15       EQUB 21
38FA 3F       EQUB 63
38FB 2A       EQUB 42
38FC 3F       EQUB 63
38FD 03       EQUB 03
38FE 03       EQUB 03
38FF 03       EQUB 03
3900 03       EQUB 03
3901 30       EQUB 48
3902 20       EQUB 32
3903 20       EQUB 32
3904 08       EQUB 08
3905 00       EQUB 00
3906 00       EQUB 00
3907 0F       EQUB 15
3908 0F       EQUB 15
3909 15       EQUB 21
390A 3F       EQUB 63
390B 2A       EQUB 42
390C 2A       EQUB 42
390D 03       EQUB 03
390E 03       EQUB 03
390F 03       EQUB 03
3910 03       EQUB 03
3911 30       EQUB 48
3912 30       EQUB 48
3913 30       EQUB 48
3914 30       EQUB 48
3915 30       EQUB 48
3916 0C       EQUB 12
3917 00       EQUB 00
3918 0F       EQUB 15
3919 00       EQUB 00
391A 00       EQUB 00
391B 00       EQUB 00
391C 00       EQUB 00
391D 02       EQUB 02
391E 02       EQUB 02
391F 2A       EQUB 42
3920 02       EQUB 02
3921 00       EQUB 00
3922 00       EQUB 00
3923 00       EQUB 00
3924 00       EQUB 00
3925 00       EQUB 00
3926 00       EQUB 00
3927 00       EQUB 00
3928 05       EQUB 05
3929 00       EQUB 00
392A 00       EQUB 00
392B 00       EQUB 00
392C 00       EQUB 00
392D 00       EQUB 00
392E 00       EQUB 00
392F 00       EQUB 00
3930 00       EQUB 00
3931 00       EQUB 00
3932 00       EQUB 00
3933 00       EQUB 00
3934 00       EQUB 00
3935 00       EQUB 00
3936 00       EQUB 00
3937 05       EQUB 05
3938 0F       EQUB 15
3939 15       EQUB 21
393A 15       EQUB 21
393B 00       EQUB 00
393C 00       EQUB 00
393D 00       EQUB 00
393E 00       EQUB 00
393F 00       EQUB 00
3940 00       EQUB 00
3941 00       EQUB 00
3942 00       EQUB 00
3943 00       EQUB 00
3944 00       EQUB 00
3945 00       EQUB 00
3946 00       EQUB 00
3947 0F       EQUB 15
3948 0F       EQUB 15
3949 2A       EQUB 42
394A 3F       EQUB 63
394B 3F       EQUB 63
394C 3F       EQUB 63
394D 03       EQUB 03
394E 03       EQUB 03
394F 03       EQUB 03
3950 30       EQUB 48
3951 30       EQUB 48
3952 30       EQUB 48
3953 30       EQUB 48
3954 30       EQUB 48
3955 30       EQUB 48
3956 0C       EQUB 12
3957 0A       EQUB 10
3958 0F       EQUB 15
3959 2A       EQUB 42
395A 3F       EQUB 63
395B 2A       EQUB 42
395C 00       EQUB 00
395D 00       EQUB 00
395E 00       EQUB 00
395F 03       EQUB 03
3960 00       EQUB 00
3961 00       EQUB 00
3962 00       EQUB 00
3963 00       EQUB 00
3964 00       EQUB 00
3965 00       EQUB 00
3966 08       EQUB 08
3967 00       EQUB 00
3968 0A       EQUB 10
3969 00       EQUB 00
396A 00       EQUB 00
396B 00       EQUB 00
396C 00       EQUB 00
396D 00       EQUB 00
396E 3F       EQUB 63
396F 2A       EQUB 42
3970 00       EQUB 00
3971 00       EQUB 00
3972 00       EQUB 00
3973 00       EQUB 00
3974 00       EQUB 00
3975 00       EQUB 00
3976 00       EQUB 00
3977 00       EQUB 00
3978 05       EQUB 05
3979 00       EQUB 00
397A 00       EQUB 00
397B 00       EQUB 00
397C 00       EQUB 00
397D 00       EQUB 00
397E 00       EQUB 00
397F 00       EQUB 00
3980 00       EQUB 00
3981 00       EQUB 00
3982 00       EQUB 00
3983 00       EQUB 00
3984 04       EQUB 04
3985 04       EQUB 04
3986 00       EQUB 00
3987 05       EQUB 05
3988 0F       EQUB 15
3989 15       EQUB 21
398A 15       EQUB 21
398B 00       EQUB 00
398C 00       EQUB 00
398D 00       EQUB 00
398E 00       EQUB 00
398F 00       EQUB 00
3990 00       EQUB 00
3991 00       EQUB 00
3992 00       EQUB 00
3993 10       EQUB 16
3994 20       EQUB 32
3995 00       EQUB 00
3996 00       EQUB 00
3997 0F       EQUB 15
3998 0F       EQUB 15
3999 2A       EQUB 42
399A 3F       EQUB 63
399B 3F       EQUB 63
399C 3F       EQUB 63
399D 03       EQUB 03
399E 03       EQUB 03
399F 03       EQUB 03
39A0 30       EQUB 48
39A1 30       EQUB 48
39A2 20       EQUB 32
39A3 00       EQUB 00
39A4 00       EQUB 00
39A5 00       EQUB 00
39A6 00       EQUB 00
39A7 0A       EQUB 10
39A8 0F       EQUB 15
39A9 2A       EQUB 42
39AA 3F       EQUB 63
39AB 2A       EQUB 42
39AC 00       EQUB 00
39AD 00       EQUB 00
39AE 00       EQUB 00
39AF 03       EQUB 03
39B0 00       EQUB 00
39B1 00       EQUB 00
39B2 20       EQUB 32
39B3 20       EQUB 32
39B4 10       EQUB 16
39B5 10       EQUB 16
39B6 04       EQUB 04
39B7 00       EQUB 00
39B8 0A       EQUB 10
39B9 00       EQUB 00
39BA 00       EQUB 00
39BB 00       EQUB 00
39BC 00       EQUB 00
39BD 00       EQUB 00
39BE 3F       EQUB 63
39BF 2A       EQUB 42
39C0 00       EQUB 00
39C1 00       EQUB 00
39C2 00       EQUB 00
39C3 00       EQUB 00
39C4 00       EQUB 00
39C5 00       EQUB 00
39C6 08       EQUB 08
39C7 00       EQUB 00
39C8 00       EQUB 00
39C9 00       EQUB 00
39CA 00       EQUB 00
39CB 00       EQUB 00
39CC 00       EQUB 00
39CD 00       EQUB 00
39CE 15       EQUB 21
39CF 00       EQUB 00
39D0 00       EQUB 00
39D1 00       EQUB 00
39D2 00       EQUB 00
39D3 00       EQUB 00
39D4 00       EQUB 00
39D5 00       EQUB 00
39D6 00       EQUB 00
39D7 00       EQUB 00
39D8 0F       EQUB 15
39D9 00       EQUB 00
39DA 15       EQUB 21
39DB 00       EQUB 00
39DC 00       EQUB 00
39DD 00       EQUB 00
39DE 2A       EQUB 42
39DF 2B       EQUB 43
39E0 00       EQUB 00
39E1 00       EQUB 00
39E2 00       EQUB 00
39E3 00       EQUB 00
39E4 00       EQUB 00
39E5 00       EQUB 00
39E6 00       EQUB 00
39E7 0F       EQUB 15
39E8 0F       EQUB 15
39E9 2A       EQUB 42
39EA 3F       EQUB 63
39EB 3F       EQUB 63
39EC 15       EQUB 21
39ED 01       EQUB 01
39EE 01       EQUB 01
39EF 03       EQUB 03
39F0 10       EQUB 16
39F1 10       EQUB 16
39F2 10       EQUB 16
39F3 10       EQUB 16
39F4 10       EQUB 16
39F5 10       EQUB 16
39F6 0C       EQUB 12
39F7 0F       EQUB 15
39F8 0F       EQUB 15
39F9 3F       EQUB 63
39FA 3F       EQUB 63
39FB 2A       EQUB 42
39FC 2A       EQUB 42
39FD 02       EQUB 02
39FE 02       EQUB 02
39FF 02       EQUB 02
3A00 20       EQUB 32
3A01 20       EQUB 32
3A02 20       EQUB 32
3A03 20       EQUB 32
3A04 20       EQUB 32
3A05 20       EQUB 32
3A06 08       EQUB 08
3A07 00       EQUB 00
3A08 0F       EQUB 15
3A09 00       EQUB 00
3A0A 00       EQUB 00
3A0B 00       EQUB 00
3A0C 00       EQUB 00
3A0D 00       EQUB 00
3A0E 00       EQUB 00
3A0F 00       EQUB 00
3A10 00       EQUB 00
3A11 00       EQUB 00
3A12 00       EQUB 00
3A13 00       EQUB 00
3A14 00       EQUB 00
3A15 00       EQUB 00
3A16 00       EQUB 00
3A17 00       EQUB 00
3A18 00       EQUB 00
3A19 00       EQUB 00
3A1A 00       EQUB 00
3A1B 00       EQUB 00
3A1C 00       EQUB 00
3A1D 00       EQUB 00
3A1E 15       EQUB 21
3A1F 00       EQUB 00
3A20 00       EQUB 00
3A21 00       EQUB 00
3A22 00       EQUB 00
3A23 00       EQUB 00
3A24 00       EQUB 00
3A25 00       EQUB 00
3A26 00       EQUB 00
3A27 00       EQUB 00
3A28 0F       EQUB 15
3A29 00       EQUB 00
3A2A 15       EQUB 21
3A2B 00       EQUB 00
3A2C 00       EQUB 00
3A2D 00       EQUB 00
3A2E 2A       EQUB 42
3A2F 2B       EQUB 43
3A30 00       EQUB 00
3A31 00       EQUB 00
3A32 00       EQUB 00
3A33 00       EQUB 00
3A34 10       EQUB 16
3A35 10       EQUB 16
3A36 0C       EQUB 12
3A37 0F       EQUB 15
3A38 0F       EQUB 15
3A39 2A       EQUB 42
3A3A 3F       EQUB 63
3A3B 3F       EQUB 63
3A3C 15       EQUB 21
3A3D 01       EQUB 01
3A3E 01       EQUB 01
3A3F 03       EQUB 03
3A40 10       EQUB 16
3A41 10       EQUB 16
3A42 20       EQUB 32
3A43 20       EQUB 32
3A44 00       EQUB 00
3A45 00       EQUB 00
3A46 00       EQUB 00
3A47 0F       EQUB 15
3A48 0F       EQUB 15
3A49 3F       EQUB 63
3A4A 3F       EQUB 63
3A4B 2A       EQUB 42
3A4C 2A       EQUB 42
3A4D 02       EQUB 02
3A4E 02       EQUB 02
3A4F 02       EQUB 02
3A50 20       EQUB 32
3A51 20       EQUB 32
3A52 20       EQUB 32
3A53 10       EQUB 16
3A54 00       EQUB 00
3A55 00       EQUB 00
3A56 00       EQUB 00
3A57 00       EQUB 00
3A58 0F       EQUB 15
3A59 00       EQUB 00
3A5A 00       EQUB 00
3A5B 00       EQUB 00
3A5C 00       EQUB 00
3A5D 00       EQUB 00
3A5E 00       EQUB 00
3A5F 00       EQUB 00
3A60 00       EQUB 00
3A61 00       EQUB 00
3A62 00       EQUB 00
3A63 00       EQUB 00
3A64 24       EQUB 36
3A65 04       EQUB 04
3A66 00       EQUB 00
3A67 00       EQUB 00
3A68 00       EQUB 00
3A69 00       EQUB 00
3A6A 00       EQUB 00
3A6B 00       EQUB 00
3A6C 00       EQUB 00
3A6D 54       EQUB 84
3A6E FC       EQUB 252
3A6F FC       EQUB 252
3A70 54       EQUB 84
3A71 00       EQUB 00
3A72 00       EQUB 00
3A73 00       EQUB 00
3A74 00       EQUB 00
3A75 00       EQUB 00
3A76 00       EQUB 00
3A77 00       EQUB 00
3A78 00       EQUB 00
3A79 00       EQUB 00
3A7A 00       EQUB 00
3A7B 00       EQUB 00
3A7C FC       EQUB 252
3A7D FC       EQUB 252
3A7E FC       EQUB 252
3A7F FC       EQUB 252
3A80 FC       EQUB 252
3A81 FC       EQUB 252
3A82 00       EQUB 00
3A83 00       EQUB 00
3A84 00       EQUB 00
3A85 00       EQUB 00
3A86 00       EQUB 00
3A87 00       EQUB 00
3A88 00       EQUB 00
3A89 00       EQUB 00
3A8A 00       EQUB 00
3A8B FC       EQUB 252
3A8C FC       EQUB 252
3A8D FC       EQUB 252
3A8E FC       EQUB 252
3A8F FC       EQUB 252
3A90 FC       EQUB 252
3A91 FC       EQUB 252
3A92 FC       EQUB 252
3A93 54       EQUB 84
3A94 00       EQUB 00
3A95 00       EQUB 00
3A96 00       EQUB 00
3A97 00       EQUB 00
3A98 00       EQUB 00
3A99 54       EQUB 84
3A9A FC       EQUB 252
3A9B FC       EQUB 252
3A9C FC       EQUB 252
3A9D FC       EQUB 252
3A9E FC       EQUB 252
3A9F FC       EQUB 252
3AA0 FC       EQUB 252
3AA1 FC       EQUB 252
3AA2 FC       EQUB 252
3AA3 FC       EQUB 252
3AA4 54       EQUB 84
3AA5 00       EQUB 00
3AA6 00       EQUB 00
3AA7 00       EQUB 00
3AA8 54       EQUB 84
3AA9 FC       EQUB 252
3AAA FC       EQUB 252
3AAB FC       EQUB 252
3AAC FC       EQUB 252
3AAD FC       EQUB 252
3AAE FC       EQUB 252
3AAF FC       EQUB 252
3AB0 FC       EQUB 252
3AB1 FC       EQUB 252
3AB2 FC       EQUB 252
3AB3 FC       EQUB 252
3AB4 FC       EQUB 252
3AB5 54       EQUB 84
3AB6 00       EQUB 00
3AB7 00       EQUB 00
3AB8 A8       EQUB 168
3AB9 FC       EQUB 252
3ABA FC       EQUB 252
3ABB FC       EQUB 252
3ABC FC       EQUB 252
3ABD FC       EQUB 252
3ABE FC       EQUB 252
3ABF FC       EQUB 252
3AC0 FC       EQUB 252
3AC1 FC       EQUB 252
3AC2 FC       EQUB 252
3AC3 FC       EQUB 252
3AC4 FC       EQUB 252
3AC5 A8       EQUB 168
3AC6 00       EQUB 00
3AC7 00       EQUB 00
3AC8 00       EQUB 00
3AC9 A8       EQUB 168
3ACA FC       EQUB 252
3ACB FC       EQUB 252
3ACC FC       EQUB 252
3ACD FC       EQUB 252
3ACE FC       EQUB 252
3ACF FC       EQUB 252
3AD0 FC       EQUB 252
3AD1 FC       EQUB 252
3AD2 FC       EQUB 252
3AD3 FC       EQUB 252
3AD4 A8       EQUB 168
3AD5 00       EQUB 00
3AD6 00       EQUB 00
3AD7 00       EQUB 00
3AD8 00       EQUB 00
3AD9 00       EQUB 00
3ADA A8       EQUB 168
3ADB FC       EQUB 252
3ADC FC       EQUB 252
3ADD FC       EQUB 252
3ADE FC       EQUB 252
3ADF FC       EQUB 252
3AE0 FC       EQUB 252
3AE1 FC       EQUB 252
3AE2 FC       EQUB 252
3AE3 A8       EQUB 168
3AE4 00       EQUB 00
3AE5 00       EQUB 00
3AE6 00       EQUB 00
3AE7 00       EQUB 00
3AE8 00       EQUB 00
3AE9 00       EQUB 00
3AEA 00       EQUB 00
3AEB A8       EQUB 168
3AEC FC       EQUB 252
3AED FC       EQUB 252
3AEE FC       EQUB 252
3AEF FC       EQUB 252
3AF0 FC       EQUB 252
3AF1 FC       EQUB 252
3AF2 A8       EQUB 168
3AF3 00       EQUB 00
3AF4 00       EQUB 00
3AF5 00       EQUB 00
3AF6 00       EQUB 00
3AF7 00       EQUB 00
3AF8 00       EQUB 00
3AF9 00       EQUB 00
3AFA 00       EQUB 00
3AFB 00       EQUB 00
3AFC 00       EQUB 00
3AFD A8       EQUB 168
3AFE FC       EQUB 252
3AFF FC       EQUB 252
3B00 A8       EQUB 168
3B01 00       EQUB 00
3B02 00       EQUB 00
3B03 00       EQUB 00
3B04 00       EQUB 00
3B05 00       EQUB 00
3B06 00       EQUB 00
3B07 00       EQUB 00
3B08 FC       EQUB 252
3B09 FC       EQUB 252
3B0A FC       EQUB 252
3B0B FC       EQUB 252
3B0C FC       EQUB 252
3B0D FC       EQUB 252
3B0E FC       EQUB 252
3B0F FC       EQUB 252
3B10 FC       EQUB 252
3B11 FC       EQUB 252
3B12 FC       EQUB 252
3B13 FC       EQUB 252
3B14 FC       EQUB 252
3B15 FC       EQUB 252
3B16 00       EQUB 00
3B17 00       EQUB 00
3B18 FC       EQUB 252
3B19 FC       EQUB 252
3B1A FC       EQUB 252
3B1B FC       EQUB 252
3B1C FC       EQUB 252
3B1D FC       EQUB 252
3B1E FC       EQUB 252
3B1F FC       EQUB 252
3B20 FC       EQUB 252
3B21 FC       EQUB 252
3B22 FC       EQUB 252
3B23 FC       EQUB 252
3B24 FC       EQUB 252
3B25 FC       EQUB 252
3B26 00       EQUB 00
3B27 00       EQUB 00
3B28 FC       EQUB 252
3B29 FC       EQUB 252
3B2A FC       EQUB 252
3B2B FC       EQUB 252
3B2C FC       EQUB 252
3B2D FC       EQUB 252
3B2E FC       EQUB 252
3B2F FC       EQUB 252
3B30 FC       EQUB 252
3B31 FC       EQUB 252
3B32 FC       EQUB 252
3B33 FC       EQUB 252
3B34 FC       EQUB 252
3B35 FC       EQUB 252
3B36 00       EQUB 00
3B37 00       EQUB 00
3B38 FC       EQUB 252
3B39 FC       EQUB 252
3B3A FC       EQUB 252
3B3B FC       EQUB 252
3B3C FC       EQUB 252
3B3D FC       EQUB 252
3B3E FC       EQUB 252
3B3F FC       EQUB 252
3B40 FC       EQUB 252
3B41 FC       EQUB 252
3B42 FC       EQUB 252
3B43 FC       EQUB 252
3B44 FC       EQUB 252
3B45 FC       EQUB 252
3B46 00       EQUB 00
3B47 00       EQUB 00
3B48 FC       EQUB 252
3B49 FC       EQUB 252
3B4A FC       EQUB 252
3B4B FC       EQUB 252
3B4C FC       EQUB 252
3B4D FC       EQUB 252
3B4E FC       EQUB 252
3B4F FC       EQUB 252
3B50 FC       EQUB 252
3B51 FC       EQUB 252
3B52 FC       EQUB 252
3B53 FC       EQUB 252
3B54 FC       EQUB 252
3B55 FC       EQUB 252
3B56 00       EQUB 00
3B57 F0       EQUB 240
3B58 F0       EQUB 240
3B59 F0       EQUB 240
3B5A F0       EQUB 240
3B5B F0       EQUB 240
3B5C F0       EQUB 240
3B5D F0       EQUB 240
3B5E F0       EQUB 240
3B5F F0       EQUB 240
3B60 F0       EQUB 240
3B61 F0       EQUB 240
3B62 F0       EQUB 240
3B63 F0       EQUB 240
3B64 F0       EQUB 240
3B65 F0       EQUB 240
3B66 F0       EQUB 240
3B67 F0       EQUB 240
3B68 F0       EQUB 240
3B69 F0       EQUB 240
3B6A F0       EQUB 240
3B6B F0       EQUB 240
3B6C F0       EQUB 240
3B6D F3       EQUB 243
3B6E F3       EQUB 243
3B6F F3       EQUB 243
3B70 F3       EQUB 243
3B71 F3       EQUB 243
3B72 F3       EQUB 243
3B73 F3       EQUB 243
3B74 F3       EQUB 243
3B75 F3       EQUB 243
3B76 F0       EQUB 240
3B77 F0       EQUB 240
3B78 F0       EQUB 240
3B79 F0       EQUB 240
3B7A F0       EQUB 240
3B7B B5       EQUB 181
3B7C 7A       EQUB 122
3B7D F3       EQUB 243
3B7E F3       EQUB 243
3B7F F3       EQUB 243
3B80 F3       EQUB 243
3B81 F3       EQUB 243
3B82 F3       EQUB 243
3B83 F3       EQUB 243
3B84 F3       EQUB 243
3B85 F3       EQUB 243
3B86 F0       EQUB 240
3B87 F0       EQUB 240
3B88 F0       EQUB 240
3B89 F0       EQUB 240
3B8A 7A       EQUB 122
3B8B F0       EQUB 240
3B8C F0       EQUB 240
3B8D F0       EQUB 240
3B8E F0       EQUB 240
3B8F F0       EQUB 240
3B90 F0       EQUB 240
3B91 F0       EQUB 240
3B92 F0       EQUB 240
3B93 F0       EQUB 240
3B94 F0       EQUB 240
3B95 F0       EQUB 240
3B96 F0       EQUB 240
3B97 F0       EQUB 240
3B98 F0       EQUB 240
3B99 F0       EQUB 240
3B9A F0       EQUB 240
3B9B F0       EQUB 240
3B9C F0       EQUB 240
3B9D F0       EQUB 240
3B9E F0       EQUB 240
3B9F F0       EQUB 240
3BA0 F0       EQUB 240
3BA1 F0       EQUB 240
3BA2 F0       EQUB 240
3BA3 F0       EQUB 240
3BA4 F0       EQUB 240
3BA5 F0       EQUB 240
3BA6 F0       EQUB 240
3BA7 15       EQUB 21
3BA8 3F       EQUB 63
3BA9 3F       EQUB 63
3BAA 00       EQUB 00
3BAB 00       EQUB 00
3BAC 00       EQUB 00
3BAD 00       EQUB 00
3BAE 00       EQUB 00
3BAF 00       EQUB 00
3BB0 00       EQUB 00
3BB1 00       EQUB 00
3BB2 00       EQUB 00
3BB3 00       EQUB 00
3BB4 3F       EQUB 63
3BB5 3F       EQUB 63
3BB6 15       EQUB 21
3BB7 00       EQUB 00
3BB8 00       EQUB 00
3BB9 00       EQUB 00
3BBA 15       EQUB 21
3BBB 3F       EQUB 63
3BBC 2A       EQUB 42
3BBD 2A       EQUB 42
3BBE 3F       EQUB 63
3BBF 15       EQUB 21
3BC0 00       EQUB 00
3BC1 15       EQUB 21
3BC2 00       EQUB 00
3BC3 2A       EQUB 42
3BC4 2A       EQUB 42
3BC5 00       EQUB 00
3BC6 00       EQUB 00
3BC7 00       EQUB 00
3BC8 00       EQUB 00
3BC9 00       EQUB 00
3BCA 3F       EQUB 63
3BCB 3F       EQUB 63
3BCC 3F       EQUB 63
3BCD 3F       EQUB 63
3BCE 3F       EQUB 63
3BCF 3F       EQUB 63
3BD0 00       EQUB 00
3BD1 3F       EQUB 63
3BD2 3F       EQUB 63
3BD3 00       EQUB 00
3BD4 00       EQUB 00
3BD5 00       EQUB 00
3BD6 00       EQUB 00
3BD7 00       EQUB 00
3BD8 00       EQUB 00
3BD9 00       EQUB 00
3BDA 2A       EQUB 42
3BDB 3F       EQUB 63
3BDC 15       EQUB 21
3BDD 15       EQUB 21
3BDE 3F       EQUB 63
3BDF 2A       EQUB 42
3BE0 00       EQUB 00
3BE1 2A       EQUB 42
3BE2 00       EQUB 00
3BE3 15       EQUB 21
3BE4 15       EQUB 21
3BE5 00       EQUB 00
3BE6 00       EQUB 00
3BE7 2A       EQUB 42
3BE8 3F       EQUB 63
3BE9 3F       EQUB 63
3BEA 00       EQUB 00
3BEB 00       EQUB 00
3BEC 00       EQUB 00
3BED 00       EQUB 00
3BEE 00       EQUB 00
3BEF 00       EQUB 00
3BF0 00       EQUB 00
3BF1 00       EQUB 00
3BF2 00       EQUB 00
3BF3 00       EQUB 00
3BF4 3F       EQUB 63
3BF5 3F       EQUB 63
3BF6 2A       EQUB 42
3BF7 00       EQUB 00
3BF8 00       EQUB 00
3BF9 00       EQUB 00
3BFA 00       EQUB 00
3BFB 00       EQUB 00
3BFC 00       EQUB 00
3BFD 00       EQUB 00
3BFE 00       EQUB 00
3BFF 00       EQUB 00
3C00 00       EQUB 00
3C01 00       EQUB 00
3C02 00       EQUB 00
3C03 00       EQUB 00
3C04 00       EQUB 00
3C05 00       EQUB 00
3C06 00       EQUB 00
3C07 00       EQUB 00
3C08 00       EQUB 00
3C09 00       EQUB 00
3C0A 41       EQUB 65
3C0B 41       EQUB 65
3C0C C3       EQUB 195
3C0D C3       EQUB 195
3C0E C3       EQUB 195
3C0F C3       EQUB 195
3C10 C3       EQUB 195
3C11 C3       EQUB 195
3C12 41       EQUB 65
3C13 41       EQUB 65
3C14 00       EQUB 00
3C15 00       EQUB 00
3C16 00       EQUB 00
3C17 00       EQUB 00
3C18 00       EQUB 00
3C19 C3       EQUB 195
3C1A C3       EQUB 195
3C1B C3       EQUB 195
3C1C C3       EQUB 195
3C1D C3       EQUB 195
3C1E C3       EQUB 195
3C1F C3       EQUB 195
3C20 C3       EQUB 195
3C21 C3       EQUB 195
3C22 97       EQUB 151
3C23 C3       EQUB 195
3C24 C3       EQUB 195
3C25 00       EQUB 00
3C26 00       EQUB 00
3C27 00       EQUB 00
3C28 00       EQUB 00
3C29 00       EQUB 00
3C2A 82       EQUB 130
3C2B 82       EQUB 130
3C2C C3       EQUB 195
3C2D 6B       EQUB 107
3C2E 6B       EQUB 107
3C2F 6B       EQUB 107
3C30 6B       EQUB 107
3C31 C3       EQUB 195
3C32 82       EQUB 130
3C33 82       EQUB 130
3C34 00       EQUB 00
3C35 00       EQUB 00
3C36 00       EQUB 00
3C37 00       EQUB 00
3C38 00       EQUB 00
3C39 00       EQUB 00
3C3A 00       EQUB 00
3C3B 00       EQUB 00
3C3C 00       EQUB 00
3C3D 00       EQUB 00
3C3E 00       EQUB 00
3C3F 00       EQUB 00
3C40 00       EQUB 00
3C41 00       EQUB 00
3C42 00       EQUB 00
3C43 00       EQUB 00
3C44 00       EQUB 00
3C45 00       EQUB 00
3C46 00       EQUB 00
3C47 3F       EQUB 63
3C48 2A       EQUB 42
3C49 2A       EQUB 42
3C4A 2A       EQUB 42
3C4B 2A       EQUB 42
3C4C 2A       EQUB 42
3C4D 3F       EQUB 63
3C4E 2A       EQUB 42
3C4F 2A       EQUB 42
3C50 2A       EQUB 42
3C51 2A       EQUB 42
3C52 2A       EQUB 42
3C53 2A       EQUB 42
3C54 2A       EQUB 42
3C55 15       EQUB 21
3C56 15       EQUB 21
3C57 15       EQUB 21
3C58 15       EQUB 21
3C59 15       EQUB 21
3C5A 15       EQUB 21
3C5B 15       EQUB 21
3C5C 00       EQUB 00
3C5D 00       EQUB 00
3C5E 00       EQUB 00
3C5F 00       EQUB 00
3C60 00       EQUB 00
3C61 00       EQUB 00
3C62 00       EQUB 00
3C63 3F       EQUB 63
3C64 00       EQUB 00
3C65 00       EQUB 00
3C66 3F       EQUB 63
3C67 2A       EQUB 42
3C68 2A       EQUB 42
3C69 3F       EQUB 63
3C6A 2A       EQUB 42
3C6B 2A       EQUB 42
3C6C 2A       EQUB 42
3C6D 2A       EQUB 42
3C6E 00       EQUB 00
3C6F 00       EQUB 00
3C70 2A       EQUB 42
3C71 3F       EQUB 63
3C72 00       EQUB 00
3C73 00       EQUB 00
3C74 3F       EQUB 63
3C75 00       EQUB 00
3C76 00       EQUB 00
3C77 3F       EQUB 63
3C78 2A       EQUB 42
3C79 2A       EQUB 42
3C7A 2A       EQUB 42
3C7B 2A       EQUB 42
3C7C 2A       EQUB 42
3C7D 2A       EQUB 42
3C7E 2A       EQUB 42
3C7F 2A       EQUB 42
3C80 2A       EQUB 42
3C81 2A       EQUB 42
3C82 3F       EQUB 63
3C83 00       EQUB 00
3C84 00       EQUB 00
3C85 00       EQUB 00
3C86 2A       EQUB 42
3C87 2A       EQUB 42
3C88 2A       EQUB 42
3C89 2A       EQUB 42
3C8A 2A       EQUB 42
3C8B 2A       EQUB 42
3C8C 2A       EQUB 42
3C8D 3F       EQUB 63
3C8E 2A       EQUB 42
3C8F 2A       EQUB 42
3C90 3F       EQUB 63
3C91 00       EQUB 00
3C92 00       EQUB 00
3C93 3F       EQUB 63
3C94 2A       EQUB 42
3C95 00       EQUB 00
3C96 00       EQUB 00
3C97 2A       EQUB 42
3C98 2A       EQUB 42
3C99 2A       EQUB 42
3C9A 2A       EQUB 42
3C9B 3F       EQUB 63
3C9C 2A       EQUB 42
3C9D 2A       EQUB 42
3C9E 3F       EQUB 63
3C9F 2A       EQUB 42
3CA0 2A       EQUB 42
3CA1 3F       EQUB 63
3CA2 2A       EQUB 42
3CA3 00       EQUB 00
3CA4 00       EQUB 00
3CA5 2A       EQUB 42
3CA6 2A       EQUB 42
3CA7 2A       EQUB 42
3CA8 2A       EQUB 42
3CA9 3F       EQUB 63
3CAA 00       EQUB 00
3CAB 00       EQUB 00
3CAC 00       EQUB 00
3CAD 00       EQUB 00
3CAE 00       EQUB 00
3CAF 00       EQUB 00
3CB0 2A       EQUB 42
3CB1 2A       EQUB 42
3CB2 2A       EQUB 42
3CB3 2A       EQUB 42
3CB4 2A       EQUB 42
3CB5 2A       EQUB 42
3CB6 2A       EQUB 42
3CB7 3F       EQUB 63
3CB8 2A       EQUB 42
3CB9 2A       EQUB 42
3CBA 3F       EQUB 63
3CBB 2A       EQUB 42
3CBC 2A       EQUB 42
3CBD 3F       EQUB 63
3CBE 2A       EQUB 42
3CBF 2A       EQUB 42
3CC0 2A       EQUB 42
3CC1 2A       EQUB 42
3CC2 2A       EQUB 42
3CC3 2A       EQUB 42
3CC4 2A       EQUB 42
3CC5 3F       EQUB 63
3CC6 2A       EQUB 42
3CC7 2A       EQUB 42
3CC8 3F       EQUB 63
3CC9 00       EQUB 00
3CCA 00       EQUB 00
3CCB 3F       EQUB 63
3CCC 2A       EQUB 42
3CCD 2A       EQUB 42
3CCE 2A       EQUB 42
3CCF 2A       EQUB 42
3CD0 2A       EQUB 42
3CD1 2A       EQUB 42
3CD2 2A       EQUB 42
3CD3 00       EQUB 00
3CD4 00       EQUB 00
3CD5 00       EQUB 00
3CD6 00       EQUB 00
3CD7 00       EQUB 00
3CD8 00       EQUB 00
3CD9 00       EQUB 00
3CDA 00       EQUB 00
3CDB 00       EQUB 00
3CDC 00       EQUB 00
3CDD 00       EQUB 00
3CDE 00       EQUB 00
3CDF 00       EQUB 00
3CE0 00       EQUB 00
3CE1 3F       EQUB 63
3CE2 2A       EQUB 42
3CE3 2A       EQUB 42
3CE4 2A       EQUB 42
3CE5 2A       EQUB 42
3CE6 2A       EQUB 42
3CE7 3F       EQUB 63
3CE8 2A       EQUB 42
3CE9 00       EQUB 00
3CEA 00       EQUB 00
3CEB 00       EQUB 00
3CEC 00       EQUB 00
3CED 00       EQUB 00
3CEE 2A       EQUB 42
3CEF 3F       EQUB 63
3CF0 2A       EQUB 42
3CF1 2A       EQUB 42
3CF2 3F       EQUB 63
3CF3 2A       EQUB 42
3CF4 2A       EQUB 42
3CF5 2A       EQUB 42
3CF6 2A       EQUB 42
3CF7 2A       EQUB 42
3CF8 2A       EQUB 42
3CF9 00       EQUB 00
3CFA 2A       EQUB 42
3CFB 2A       EQUB 42
3CFC 2A       EQUB 42
3CFD 3F       EQUB 63
3CFE 2A       EQUB 42
3CFF 2A       EQUB 42
3D00 3F       EQUB 63
3D01 2A       EQUB 42
3D02 2A       EQUB 42
3D03 3F       EQUB 63
3D04 2A       EQUB 42
3D05 00       EQUB 00
3D06 00       EQUB 00
3D07 00       EQUB 00
3D08 00       EQUB 00
3D09 00       EQUB 00
3D0A 2A       EQUB 42
3D0B 3F       EQUB 63
3D0C 15       EQUB 21
3D0D 15       EQUB 21
3D0E 15       EQUB 21
3D0F 15       EQUB 21
3D10 15       EQUB 21
3D11 15       EQUB 21
3D12 2A       EQUB 42
3D13 00       EQUB 00
3D14 00       EQUB 00
3D15 00       EQUB 00
3D16 00       EQUB 00
3D17 00       EQUB 00
3D18 00       EQUB 00
3D19 3F       EQUB 63
3D1A 15       EQUB 21
3D1B 15       EQUB 21
3D1C 15       EQUB 21
3D1D 15       EQUB 21
3D1E 15       EQUB 21
3D1F 3F       EQUB 63
3D20 2A       EQUB 42
3D21 00       EQUB 00
3D22 00       EQUB 00
3D23 00       EQUB 00
3D24 00       EQUB 00
3D25 00       EQUB 00
3D26 2A       EQUB 42
3D27 3F       EQUB 63
3D28 2A       EQUB 42
3D29 2A       EQUB 42
3D2A 2A       EQUB 42
3D2B 2A       EQUB 42
3D2C 2A       EQUB 42
3D2D 2A       EQUB 42
3D2E 3F       EQUB 63
3D2F 2A       EQUB 42
3D30 2A       EQUB 42
3D31 2A       EQUB 42
3D32 2A       EQUB 42
3D33 2A       EQUB 42
3D34 2A       EQUB 42
3D35 2A       EQUB 42
3D36 2A       EQUB 42
3D37 2A       EQUB 42
3D38 2A       EQUB 42
3D39 2A       EQUB 42
3D3A 2A       EQUB 42
3D3B 2A       EQUB 42
3D3C 3F       EQUB 63
3D3D 2A       EQUB 42
3D3E 2A       EQUB 42
3D3F 3F       EQUB 63
3D40 2A       EQUB 42
3D41 2A       EQUB 42
3D42 3F       EQUB 63
3D43 2A       EQUB 42
3D44 2A       EQUB 42
3D45 2A       EQUB 42
3D46 2A       EQUB 42
3D47 2A       EQUB 42
3D48 2A       EQUB 42
3D49 3F       EQUB 63
3D4A 00       EQUB 00
3D4B 00       EQUB 00
3D4C 00       EQUB 00
3D4D 00       EQUB 00
3D4E 00       EQUB 00
3D4F 00       EQUB 00
3D50 2A       EQUB 42
3D51 0F       EQUB 15
3D52 15       EQUB 21
3D53 01       EQUB 01
3D54 01       EQUB 01
3D55 10       EQUB 16
3D56 10       EQUB 16
3D57 04       EQUB 04
3D58 0A       EQUB 10
3D59 00       EQUB 00
3D5A 00       EQUB 00
3D5B 2A       EQUB 42
3D5C 00       EQUB 00
3D5D 00       EQUB 00
3D5E 08       EQUB 08
3D5F 0F       EQUB 15
3D60 0F       EQUB 15
3D61 0F       EQUB 15
3D62 0F       EQUB 15
3D63 0F       EQUB 15
3D64 0F       EQUB 15
3D65 1A       EQUB 26
3D66 1A       EQUB 26
3D67 1A       EQUB 26
3D68 1A       EQUB 26
3D69 0F       EQUB 15
3D6A 0F       EQUB 15
3D6B 0A       EQUB 10
3D6C 1F       EQUB 31
3D6D 4E       EQUB 78
3D6E 4E       EQUB 78
3D6F 0F       EQUB 15
3D70 0F       EQUB 15
3D71 05       EQUB 05
3D72 0A       EQUB 10
3D73 00       EQUB 00
3D74 0F       EQUB 15
3D75 0F       EQUB 15
3D76 25       EQUB 37
3D77 25       EQUB 37
3D78 25       EQUB 37
3D79 25       EQUB 37
3D7A 25       EQUB 37
3D7B 25       EQUB 37
3D7C 30       EQUB 48
3D7D 30       EQUB 48
3D7E 30       EQUB 48
3D7F 30       EQUB 48
3D80 0F       EQUB 15
3D81 05       EQUB 05
3D82 0A       EQUB 10
3D83 3F       EQUB 63
3D84 C8       EQUB 200
3D85 C8       EQUB 200
3D86 0F       EQUB 15
3D87 0F       EQUB 15
3D88 0F       EQUB 15
3D89 0A       EQUB 10
3D8A 0A       EQUB 10
3D8B 0F       EQUB 15
3D8C 05       EQUB 05
3D8D 20       EQUB 32
3D8E 30       EQUB 48
3D8F 30       EQUB 48
3D90 30       EQUB 48
3D91 30       EQUB 48
3D92 30       EQUB 48
3D93 30       EQUB 48
3D94 25       EQUB 37
3D95 25       EQUB 37
3D96 25       EQUB 37
3D97 1A       EQUB 26
3D98 05       EQUB 05
3D99 0A       EQUB 10
3D9A 2F       EQUB 47
3D9B 85       EQUB 133
3D9C 85       EQUB 133
3D9D 0F       EQUB 15
3D9E 0F       EQUB 15
3D9F 0F       EQUB 15
3DA0 0F       EQUB 15
3DA1 0A       EQUB 10
3DA2 0A       EQUB 10
3DA3 00       EQUB 00
3DA4 00       EQUB 00
3DA5 1A       EQUB 26
3DA6 1A       EQUB 26
3DA7 1A       EQUB 26
3DA8 1A       EQUB 26
3DA9 1A       EQUB 26
3DAA 0F       EQUB 15
3DAB 0F       EQUB 15
3DAC 25       EQUB 37
3DAD 25       EQUB 37
3DAE 30       EQUB 48
3DAF 0F       EQUB 15
3DB0 0A       EQUB 10
3DB1 0F       EQUB 15
3DB2 0F       EQUB 15
3DB3 0F       EQUB 15
3DB4 0F       EQUB 15
3DB5 05       EQUB 05
3DB6 05       EQUB 05
3DB7 05       EQUB 05
3DB8 00       EQUB 00
3DB9 00       EQUB 00
3DBA 00       EQUB 00
3DBB 00       EQUB 00
3DBC 0A       EQUB 10
3DBD 0F       EQUB 15
3DBE 0F       EQUB 15
3DBF 1A       EQUB 26
3DC0 1A       EQUB 26
3DC1 1A       EQUB 26
3DC2 1A       EQUB 26
3DC3 30       EQUB 48
3DC4 30       EQUB 48
3DC5 20       EQUB 32
3DC6 0A       EQUB 10
3DC7 0A       EQUB 10
3DC8 0A       EQUB 10
3DC9 0A       EQUB 10
3DCA 0A       EQUB 10
3DCB 0A       EQUB 10
3DCC 00       EQUB 00
3DCD 00       EQUB 00
3DCE 00       EQUB 00
3DCF 00       EQUB 00
3DD0 00       EQUB 00
3DD1 00       EQUB 00
3DD2 00       EQUB 00
3DD3 00       EQUB 00
3DD4 25       EQUB 37
3DD5 25       EQUB 37
3DD6 30       EQUB 48
3DD7 30       EQUB 48
3DD8 30       EQUB 48
3DD9 10       EQUB 16
3DDA 10       EQUB 16
3DDB 10       EQUB 16
3DDC 00       EQUB 00
3DDD 00       EQUB 00
3DDE 00       EQUB 00
3DDF 00       EQUB 00
3DE0 00       EQUB 00
3DE1 00       EQUB 00
3DE2 00       EQUB 00
3DE3 00       EQUB 00
3DE4 00       EQUB 00
3DE5 00       EQUB 00
3DE6 00       EQUB 00
3DE7 00       EQUB 00
3DE8 00       EQUB 00
3DE9 00       EQUB 00
3DEA 00       EQUB 00
3DEB 20       EQUB 32
3DEC 20       EQUB 32
3DED 20       EQUB 32
3DEE 20       EQUB 32
3DEF 20       EQUB 32
3DF0 00       EQUB 00
3DF1 00       EQUB 00
3DF2 00       EQUB 00
3DF3 00       EQUB 00
3DF4 00       EQUB 00
3DF5 00       EQUB 00
3DF6 00       EQUB 00
3DF7 00       EQUB 00
3DF8 00       EQUB 00
3DF9 00       EQUB 00
3DFA 00       EQUB 00
3DFB 00       EQUB 00
3DFC 00       EQUB 00
3DFD 00       EQUB 00
3DFE 00       EQUB 00
3DFF 00       EQUB 00
3E00 A9 8C    LDA #&8C
3E02 A2 00    LDX #&00
3E04 20 F4 FF JSR &FFF4     ; *TAPE
3E07 20 2E 3E JSR &3E2E     ; ENVELOPE
3E0A 20 1A 3E JSR &3E1A     ; Copy some data
3E0D 20 24 3E JSR &3E24     ; Copy some more!
3E10 A9 C8    LDA #&C8
3E12 A2 02    LDX #&02
3E14 20 F4 FF JSR &FFF4     ; *FX200,2
3E17 4C 80 0B JMP &0B80     ; Jump to &B80
3E1A A2 3F    LDX #&3F
3E1C A0 04    LDY #&04
3E1E A9 04    LDA #&04
3E20 20 46 3E JSR &3E46
3E23 60       RTS
3E24 A2 19    LDX #&19
3E26 A0 0B    LDY #&0B
3E28 A9 25    LDA #&25
3E2A 20 46 3E JSR &3E46
3E2D 60       RTS
3E2E A2 38    LDX #&38      ; Define an envelope, data below
3E30 A0 3E    LDY #&3E
3E32 A9 08    LDA #&08
3E34 20 F1 FF JSR &FFF1
3E37 60       RTS
3E38 03       EQUB 03
3E39 02       EQUB 02
3E3A 08       EQUB 08
3E3B FF       EQUB 255
3E3C FF       EQUB 255
3E3D 08       EQUB 08
3E3E C8       EQUB 200
3E3F C8       EQUB 200
3E40 7E       EQUB 126
3E41 FF       EQUB 255
3E42 FF       EQUB 255
3E43 FF       EQUB 255
3E44 7E       EQUB 126
3E45 0A       EQUB 10
3E46 86 71    STX &71       ; Copy bytes
3E48 84 73    STY &73
3E4A AA       TAX
3E4B A0 00    LDY #&00
3E4D 84 70    STY &70
3E4F 84 72    STY &72
3E51 B1 70    LDA (&70),Y
3E53 91 72    STA (&72),Y
3E55 C8       INY
3E56 D0 F9    BNE &3E51
3E58 E6 71    INC &71
3E5A E6 73    INC &73
3E5C CA       DEX
3E5D D0 F2    BNE &3E51
3E5F 60       RTS
3E60 BD 0D 20 LDA &200D,X
3E63 8D 2F 04 STA &042F
3E66 E8       INX
3E67 BD 0D 20 LDA &200D,X
3E6A 8D 30 04 STA &0430
3E6D E8       INX
3E6E 8E 1D 20 STX &201D
3E71 98       TYA
3E72 20 41 0C JSR &0C41
3E75 4C DB 1F JMP &1FDB
3E78 A2 00    LDX #&00
3E7A BD 1E 20 LDA &201E,X
3E7D C9 FF    CMP #&FF
3E7F F0 06    BEQ &3E87
3E81 20 EE FF JSR &FFEE
3E84 E8       INX
3E85 D0 F3    BNE &3E7A
3E87 60       RTS
3E88 02       ???
3E89 EB       ???
3E8A 41 0E    EOR (&0E,X)
3E8C EB       ???
3E8D 4B       ???
3E8E 0F       ???
3E8F EB       ???
3E90 55 0D    EOR &0D,X
3E92 EB       ???
3E93 5F       ???
3E94 07       ???
3E95 EB       ???
3E96 69 00    ADC #&00
3E98 0F       ???
3E99 1F       ???
3E9A 06 08    ASL &08
3E9C 53       ???
3E9D 4E 41 4B LSR &4B41
3EA0 45 20    EOR &20
3EA2 20       ???
3EA3 20       EQUB 32       ; &201E
3EA4 20       EQUB 32
3EA5 35       EQUB 53
3EA6 30       EQUB 48
3EA7 1F       EQUB 31
3EA8 06       EQUB 06
3EA9 0C       EQUB 12
3EAA 52       EQUB 82
3EAB 49       EQUB 73
3EAC 4E       EQUB 78
3EAD 47       EQUB 71
3EAE 20       EQUB 32
3EAF 20       EQUB 32
3EB0 20       EQUB 32
3EB1 20       EQUB 32
3EB2 32       EQUB 50
3EB3 30       EQUB 48
3EB4 30       EQUB 48
3EB5 1F       EQUB 31
3EB6 06       EQUB 06
3EB7 10       EQUB 16
3EB8 47       EQUB 71
3EB9 4F       EQUB 79
3EBA 42       EQUB 66
3EBB 4C       EQUB 76
3EBC 45       EQUB 69
3EBD 54       EQUB 84
3EBE 20       EQUB 32
3EBF 20       EQUB 32
3EC0 33       EQUB 51
3EC1 30       EQUB 48
3EC2 30       EQUB 48
3EC3 1F       EQUB 31
3EC4 06       EQUB 06
3EC5 14       EQUB 20
3EC6 4B       EQUB 75
3EC7 45       EQUB 69
3EC8 59       EQUB 89
3EC9 20       EQUB 32
3ECA 20       EQUB 32
3ECB 20       EQUB 32
3ECC 20       EQUB 32
3ECD 20       EQUB 32
3ECE 35       EQUB 53
3ECF 30       EQUB 48
3ED0 30       EQUB 48
3ED1 1F       EQUB 31
3ED2 06       EQUB 06
3ED3 18       EQUB 24
3ED4 4C       EQUB 76
3ED5 4F       EQUB 79
3ED6 43       EQUB 67
3ED7 4B       EQUB 75
3ED8 20       EQUB 32
3ED9 20       EQUB 32
3EDA 20       EQUB 32
3EDB 20       EQUB 32
3EDC 38       EQUB 56
3EDD 30       EQUB 48
3EDE 30       EQUB 48
3EDF FF       EQUB 255
3EE0 20 90 1F JSR &1F90
3EE3 A9 00    LDA #&00
3EE5 8D 00 04 STA &0400
3EE8 A9 05    LDA #&05
3EEA 8D 01 04 STA &0401
3EED 20 E7 FF JSR &FFE7
3EF0 20 E7 FF JSR &FFE7
3EF3 20 E7 FF JSR &FFE7
3EF6 20 90 20 JSR &2090
3EF9 20 CC 20 JSR &20CC
3EFC 18       CLC
3EFD AD 00 04 LDA &0400
3F00 69 0E    ADC #&0E
3F02 8D 00 04 STA &0400
3F05 CE 01 04 DEC &0401
3F08 D0 E3    BNE &3EED
3F0A 60       RTS
3F0B A2 05    LDX #&05
3F0D 20 E0 20 JSR &20E0
3F10 AE 00 04 LDX &0400
3F13 BD B4 07 LDA &07B4,X
3F16 20 B7 20 JSR &20B7
3F19 BD B3 07 LDA &07B3,X
3F1C 20 B7 20 JSR &20B7
3F1F BD B2 07 LDA &07B2,X
3F22 20 B7 20 JSR &20B7
3F25 20 EA 20 JSR &20EA
3F28 BD B5 07 LDA &07B5,X
3F2B 20 B7 20 JSR &20B7
3F2E 20 EA 20 JSR &20EA
3F31 60       RTS
3F32 48       PHA
3F33 4A       LSR A
3F34 4A       LSR A
3F35 4A       LSR A
3F36 4A       LSR A
3F37 18       CLC
3F38 69 30    ADC #&30
3F3A 20 EE FF JSR &FFEE
3F3D 68       PLA
3F3E 29 0F    AND #&0F
3F40 18       CLC
3F41 69 30    ADC #&30
3F43 20 EE FF JSR &FFEE
3F46 60       RTS
3F47 A2 06    LDX #&06
3F49 20 E0 20 JSR &20E0
3F4C AE 00 04 LDX &0400
3F4F BD B6 07 LDA &07B6,X
3F52 E8       INX
3F53 20 E3 FF JSR &FFE3
3F56 C9 0D    CMP #&0D
3F58 D0 F5    BNE &3F4F
3F5A 60       RTS
3F5B A9 11    LDA #&11      ; VDU 17 (set text colour)
3F5D 20 EE FF JSR &FFEE
3F60 8A       TXA
3F61 20 EE FF JSR &FFEE
3F64 59 06 B8 EOR &B806,Y
3F67 04 37    TSB &37
3F69 05 0E    ORA &0E
3F6B 06 B5    ASL &B5
3F6D 06 D0    ASL &D0
3F6F 04 6B    TSB &6B
3F71 05 F5    ORA &F5
3F73 05 01    ORA &01
3F75 07       ???
3F76 E8       INX
3F77 04 9C    TSB &9C
3F79 05 27    ORA &27
3F7B 06 58    ASL &58
3F7D 07       ???
3F7E 00       BRK
3F7F 05 C4    ORA &C4
3F81 05 40    ORA &40
3F83 06 05    ASL &05
3F85 0A       ASL A
3F86 3C 40 0A BIT &0A40,X
3F89 0F       ???
3F8A 32 40    AND (&40)
3F8C 0F       ???
3F8D 14 28    TRB &28
3F8F 30 14    BMI &3FA5
3F91 14 28    TRB &28
3F93 30 19    BMI &3FAE
3F95 1E 1E 30 ASL &301E,X
3F98 1E 1E 14 ASL &141E,X
3F9B 20 23 28 JSR &2823
3F9E 0A       ASL A
3F9F 20 23 28 JSR &2823
3FA2 05 20    ORA &20
3FA4 23       ???
3FA5 32 04    AND (&04)
3FA7 10 23    BPL &3FCC
3FA9 C8       INY
3FAA 01 10    ORA (&10,X)
3FAC 02       ???
3FAD 02       ???
3FAE 03       ???
3FAF 06 00    ASL &00
3FB1 00       BRK
3FB2 00       BRK
3FB3 00       BRK
3FB4 8F       ???
3FB5 01 45    ORA (&45,X)
3FB7 02       ???
3FB8 0F       ???
3FB9 02       ???
3FBA 0F       ???
3FBB 0B       ???
3FBC 1F       ???
3FBD 02       ???
3FBE 1F       ???
3FBF 0B       ???
3FC0 D8       CLD
3FC1 75 0F    ADC &0F,X
3FC3 0B       ???
3FC4 D8       CLD
3FC5 48       PHA
3FC6 0F       ???
3FC7 02       ???
3FC8 58       CLI
3FC9 78       SEI
3FCA 1F       ???
3FCB 0B       ???
3FCC 58       CLI
3FCD 4B       ???
3FCE 1F       ???
3FCF 02       ???
3FD0 08       PHP
3FD1 02       ???
3FD2 08       PHP
3FD3 0B       ???
3FD4 2D 03 2A AND &2A03
3FD7 0B       ???
3FD8 C0 74    CPY #&74
3FDA 08       PHP
3FDB 0B       ???
3FDC C0 47    CPY #&47
3FDE 08       PHP
3FDF 02       ???
3FE0 10 7A    BPL &405C
3FE2 2A       ROL A
3FE3 0B       ???
3FE4 88       DEY
3FE5 52 2D    EOR (&2D)
3FE7 03       ???
3FE8 1F       ???
3FE9 02       ???
3FEA 1F       ???
3FEB 0B       ???
3FEC 1F       ???
3FED 02       ???
3FEE 1F       ???
3FEF 0B       ???
3FF0 58       CLI
3FF1 78       SEI
3FF2 1F       ???
3FF3 0B       ???
3FF4 58       CLI
3FF5 4B       ???
3FF6 1F       ???
3FF7 02       ???
3FF8 58       CLI
3FF9 78       SEI
3FFA 1F       ???
3FFB 0B       ???
3FFC 58       CLI
3FFD 4B       ???
3FFE 1F       ???
3FFF 02       ???
4000 14 01    TRB &01
4002 11 0A    ORA (&0A),Y
4004 1F       ???
4005 02       ???
4006 1F       ???
4007 0B       ???
4008 28       PLP
4009 71 11    ADC (&11),Y
400B 0A       ASL A
400C A0 44    LDY #&44
400E 14 01    TRB &01
4010 58       CLI
4011 78       SEI
4012 1F       ???
4013 0B       ???
4014 58       CLI
4015 4B       ???
4016 1F       ???
4017 02       ???
4018 07       ???
4019 6C 02 09 JMP (&0902)
401C 0D 02 0A ORA &0A02
401F 3D 02 09 AND &0902,X
4022 6D 02 08 ADC &0802
4025 0E 02 08 ASL &0802
4028 3E 02 08 ROL &0802,X
402B 6E 02 0B ROR &0B02
402E 0F       ???
402F 02       ???
4030 0C 3F 02 TSB &023F
4033 0B       ???
4034 6F       ???
4035 02       ???
4036 FF       ???
4037 0D 7E 01 ORA &017E
403A 0E C1 00 ASL &00C1
403D 0E 99 01 ASL &0199
4040 0F       ???
4041 FE 00 0F INC &0F00,X
4044 71 01    ADC (&01),Y
4046 05 6E    ORA &6E
4048 00       BRK
4049 00       BRK
404A 6F       ???
404B 00       BRK
404C 06 70    ASL &70
404E 00       BRK
404F 05 1E    ORA &1E
4051 02       ???
4052 00       BRK
4053 1F       ???
4054 02       ???
4055 06 20    ASL &20
4057 02       ???
4058 05 7E    ORA &7E
405A 00       BRK
405B 00       BRK
405C 7F       ???
405D 00       BRK
405E 06 80    ASL &80
4060 00       BRK
4061 05 2E    ORA &2E
4063 02       ???
4064 00       BRK
4065 2F       ???
4066 02       ???
4067 06 30    ASL &30
4069 02       ???
406A FF       ???
406B 0F       ???
406C 91 00    STA (&00),Y
406E 0F       ???
406F 8C 01 0E STY &0E01
4072 F8       SED
4073 00       BRK
4074 0E 5A 00 ASL &005A
4077 0D 96 01 ORA &0196
407A 05 67    ORA &67
407C 00       BRK
407D 00       BRK
407E 68       PLA
407F 00       BRK
4080 06 69    ASL &69
4082 00       BRK
4083 05 17    ORA &17
4085 02       ???
4086 00       BRK
4087 18       CLC
4088 02       ???
4089 06 19    ASL &19
408B 02       ???
408C 05 BC    ORA &BC
408E 00       BRK
408F 06 BE    ASL &BE
4091 00       BRK
4092 05 39    ORA &39
4094 02       ???
4095 06 3B    ASL &3B
4097 02       ???
4098 07       ???
4099 4E 00 FF LSR &FF00
409C 0D BA 00 ORA &00BA
409F 0E 98 00 ASL &0098
40A2 0F       ???
40A3 FC       ???
40A4 01 0F    ORA (&0F,X)
40A6 59 01 0E EOR &0E01,Y
40A9 01 01    ORA (&01,X)
40AB 0E D5 01 ASL &01D5
40AE 05 7E    ORA &7E
40B0 00       BRK
40B1 00       BRK
40B2 7F       ???
40B3 00       BRK
40B4 06 80    ASL &80
40B6 00       BRK
40B7 05 2E    ORA &2E
40B9 02       ???
40BA 00       BRK
40BB 2F       ???
40BC 02       ???
40BD 06 30    ASL &30
40BF 02       ???
40C0 07       ???
40C1 6B       ???
40C2 02       ???
40C3 FF       ???
40C4 0D 27 01 ORA &0127
40C7 0E E3 01 ASL &01E3
40CA 0F       ???
40CB 59 02 0E EOR &0E02,Y
40CE BA       TSX
40CF 00       BRK
40D0 05 43    ORA &43
40D2 00       BRK
40D3 00       BRK
40D4 44       ???
40D5 00       BRK
40D6 06 45    ASL &45
40D8 00       BRK
40D9 05 F0    ORA &F0
40DB 01 00    ORA (&00,X)
40DD F1 01    SBC (&01),Y
40DF 06 F2    ASL &F2
40E1 01 05    ORA (&05,X)
40E3 7E 00 00 ROR &0000,X
40E6 7F       ???
40E7 00       BRK
40E8 06 80    ASL &80
40EA 00       BRK
40EB 05 2E    ORA &2E
40ED 02       ???
40EE 00       BRK
40EF 2F       ???
40F0 02       ???
40F1 06 30    ASL &30
40F3 02       ???
40F4 FF       ???
40F5 0C 03 60 TSB &6003
40F8 4D 2A 03 EOR &032A
40FB 10 52    BPL &414F
40FD 1E 09 30 ASL &3009,X
4100 6E 12 06 ROR &0612
4103 50 5D    BVC &4162
4105 05 0A    ORA &0A
4107 48       PHA
4108 6F       ???
4109 1A       INC A
410A 08       PHP
410B 90 68    BCC &4175
410D 00       BRK
410E 08       PHP
410F 05 C0    ORA &C0
4111 56 0C    LSR &0C,X
4113 03       ???
4114 60       RTS
4115 4D 17 09 EOR &0917
4118 18       CLC
4119 6D 17 04 ADC &0417
411C 18       CLC
411D 54       ???
411E 25 0A    AND &0A
4120 48       PHA
4121 74 29    STZ &29,X
4123 03       ???
4124 E8       INX
4125 51 00    EOR (&00),Y
4127 04 08    TSB &08
4129 20 65 0A JSR &0A65
412C 0C 10 7A TSB &7A10
412F 1C 02 E0 TRB &E002
4132 4A       LSR A
4133 16 0B    ASL &0B,X
4135 F0 76    BEQ &41AD
4137 27       ???
4138 04 98    TSB &98
413A 56 2A    LSR &2A,X
413C 07       ???
413D 10 66    BPL &41A5
413F 00       BRK
4140 06 08    ASL &08
4142 70 65    BVS &41A9
4144 0B       ???
4145 07       ???
4146 38       SEC
4147 61 18    ADC (&18,X)
4149 02       ???
414A 40       RTI
414B 4A       LSR A
414C 1D 06 08 ORA &0806,X
414F 5F       ???
4150 2E 03 B0 ROL &B003
4153 52 28    EOR (&28)
4155 0A       ASL A
4156 C0 74    CPY #&74
4158 00       BRK
4159 82       ???
415A 49 84    EOR #&84
415C 02       ???
415D 84 43    STY &43
415F C2       ???
4160 41 C8    EOR (&C8,X)
4162 08       PHP
4163 00       BRK
4164 24 01    BIT &01
4166 81 04    STA (&04,X)
4168 84 45    STY &45
416A 01 82    ORA (&82,X)
416C 05 88    ORA &88
416E 43       ???
416F C2       ???
4170 42       ???
4171 84 04    STY &04
4173 86 01    STX &01
4175 87       ???
4176 43       ???
4177 84 42    STY &42
4179 C2       ???
417A 46 C8    LSR &C8
417C 06 C4    ASL &C4
417E 03       ???
417F 00       BRK
4180 FE 00 42 INC &4200,X
4183 81 41    STA (&41,X)
4185 87       ???
4186 42       ???
4187 C5 42    CMP &42
4189 C4 03    CPY &03
418B C1 00    CMP (&00,X)
418D 24 02    BIT &02
418F 41 85    EOR (&85,X)
4191 04 00    TSB &00
4193 AB       ???
4194 00       BRK
4195 41 83    EOR (&83,X)
4197 45 83    EOR &83
4199 02       ???
419A 00       BRK
419B 83       ???
419C 00       BRK
419D 82       ???
419E 01 83    ORA (&83,X)
41A0 43       ???
41A1 C1 81    CMP (&81,X)
41A3 42       ???
41A4 83       ???
41A5 05 83    ORA &83
41A7 46 00    LSR &00
41A9 76 01    ROR &01,X
41AB 41 82    EOR (&82,X)
41AD 44       ???
41AE C1 81    CMP (&81,X)
41B0 04 82    TSB &82
41B2 44       ???
41B3 82       ???
41B4 FF       ???
41B5 83       ???
41B6 43       ???
41B7 C3       ???
41B8 48       PHA
41B9 85 03    STA &03
41BB 81 01    STA (&01,X)
41BD 81 03    STA (&03,X)
41BF 00       BRK
41C0 13       ???
41C1 02       ???
41C2 05 83    ORA &83
41C4 05 87    ORA &87
41C6 45 82    EOR &82
41C8 44       ???
41C9 C3       ???
41CA 02       ???
41CB 00       BRK
41CC 6A       ROR A
41CD 00       BRK
41CE 4A       LSR A
41CF C3       ???
41D0 95 09    STA &09,X
41D2 C8       INY
41D3 47       ???
41D4 85 05    STA &05
41D6 C3       ???
41D7 43       ???
41D8 81 00    STA (&00,X)
41DA 21 02    AND (&02,X)
41DC 0A       ASL A
41DD 8E 4A 81 STX &814A
41E0 0A       ASL A
41E1 81 4A    STA (&4A,X)
41E3 81 0A    STA (&0A,X)
41E5 81 4A    STA (&4A,X)
41E7 81 03    STA (&03,X)
41E9 81 07    STA (&07,X)
41EB C1 44    CMP (&44,X)
41ED 81 46    STA (&46,X)
41EF 81 0A    STA (&0A,X)
41F1 81 4A    STA (&4A,X)
41F3 81 0A    STA (&0A,X)
41F5 4B       ???
41F6 82       ???
41F7 01 41    ORA (&41,X)
41F9 82       ???
41FA 00       BRK
41FB 89 00    BIT #&00
41FD 85 C1    STA &C1
41FF 41 FF    EOR (&FF,X)
4201 81 44    STA (&44,X)
4203 83       ???
4204 42       ???
4205 C4 45    CPY &45
4207 82       ???
4208 02       ???
4209 82       ???
420A 42       ???
420B 00       BRK
420C 97       ???
420D 00       BRK
420E C3       ???
420F 02       ???
4210 86 44    STX &44
4212 C4 00    CPY &00
4214 27       ???
4215 01 43    ORA (&43,X)
4217 82       ???
4218 42       ???
4219 86 04    STX &04
421B 84 04    STY &04
421D 85 02    STA &02
421F C7       ???
4220 44       ???
4221 00       BRK
4222 59 01 83 EOR &8301,Y
4225 06 83    ASL &83
4227 45 00    EOR &00
4229 20 02 82 JSR &8202
422C 00       BRK
422D FC       ???
422E 01 C3    ORA (&C3,X)
4230 02       ???
4231 85 03    STA &03
4233 C3       ???
4234 41 C5    EOR (&C5,X)
4236 43       ???
4237 C3       ???
4238 43       ???
4239 8E 09 82 STX &8209
423C 49 82    EOR #&82
423E 03       ???
423F 00       BRK
4240 A9 00    LDA #&00
4242 81 02    STA (&02,X)
4244 8B       ???
4245 46 82    LSR &82
4247 01 82    ORA (&82,X)
4249 44       ???
424A C2       ???
424B 42       ???
424C 84 00    STY &00
424E B6 00    LDX &00,Y
4250 81 02    STA (&02,X)
4252 87       ???
4253 46 C2    LSR &C2
4255 04 C2    TSB &C2
4257 FF       ???
4258 82       ???
4259 43       ???
425A C1 43    CMP (&43,X)
425C 83       ???
425D 45 C4    EOR &C4
425F 03       ???
4260 82       ???
4261 41 00    EOR (&00,X)
4263 E6 01    INC &01
4265 81 42    STA (&42,X)
4267 83       ???
4268 06 C1    ASL &C1
426A 02       ???
426B 84 02    STY &02
426D C1 01    CMP (&01,X)
426F C3       ???
4270 41 C3    EOR (&C3,X)
4272 43       ???
4273 81 00    STA (&00,X)
4275 FD 00 83 SBC &8300,X
4278 04 82    TSB &82
427A 41 82    EOR (&82,X)
427C 00       BRK
427D 29 02    AND #&02
427F 01 81    ORA (&81,X)
4281 03       ???
4282 81 02    STA (&02,X)
4284 C3       ???
4285 43       ???
4286 C2       ???
4287 43       ???
4288 C9 03    CMP #&03
428A 85 02    STA &02
428C 83       ???
428D 02       ???
428E 81 01    STA (&01,X)
4290 85 02    STA &02
4292 87       ???
4293 43       ???
4294 82       ???
4295 02       ???
4296 81 01    STA (&01,X)
4298 88       DEY
4299 45 C3    EOR &C3
429B 42       ???
429C C1 44    CMP (&44,X)
429E 82       ???
429F 00       BRK
42A0 0C 01 84 TSB &8401
42A3 41 82    EOR (&82,X)
42A5 42       ???
42A6 C4 41    CPY &41
42A8 C2       ???
42A9 43       ???
42AA 89 03    BIT #&03
42AC 81 02    STA (&02,X)
42AE 81 04    STA (&04,X)
42B0 83       ???
42B1 FF       ???
42B2 00       BRK
42B3 50 00    BVC &42B5
42B5 01 44    ORA (&44,X)
42B7 2E 43 4F ROL &4F43
42BA 57       ???
42BB 48       PHA
42BC 41 4D    EOR (&4D,X)
42BE 20 0D 00 JSR &000D
42C1 50 00    BVC &42C3
42C3 01 53    ORA (&53,X)
42C5 2E 48 41 ROL &4148
42C8 52 44    EOR (&44)
42CA 49 4E    EOR #&4E
42CC 47       ???
42CD 0D 00 50 ORA &5000
42D0 00       BRK
42D1 01 28    ORA (&28,X)
42D3 43       ???
42D4 29 48    AND #&48
42D6 2E 53 4F ROL &4F53
42D9 46 54    LSR &54
42DB 0D 00 10 ORA &1000
42DE 00       BRK
42DF 01 44    ORA (&44,X)
42E1 2E 43 4F ROL &4F43
42E4 57       ???
42E5 48       PHA
42E6 41 4D    EOR (&4D,X)
42E8 20 0D 00 JSR &000D
42EB 10 00    BPL &42ED
42ED 01 53    ORA (&53,X)
42EF 2E 48 41 ROL &4148
42F2 52 44    EOR (&44)
42F4 49 4E    EOR #&4E
42F6 47       ???
42F7 0D 00 00 ORA &0000
42FA 00       BRK
42FB 00       BRK
42FC 00       BRK
42FD 00       BRK
42FE 00       BRK
42FF 00       BRK
